
my.elf:     file format elf32-littleriscv


Disassembly of section .text:

00000000 <rvtest_entry_point>:
       0:	400002b7          	lui	t0,0x40000
       4:	ff028293          	addi	t0,t0,-16 # 3ffffff0 <fromhost+0x3fffa3f0>
       8:	00028113          	mv	sp,t0
       c:	00000013          	nop
      10:	00000013          	nop
      14:	00000013          	nop
      18:	00000013          	nop
      1c:	00000013          	nop

00000020 <rvtest_init>:
      20:	7d5c0837          	lui	a6,0x7d5c0
      24:	ddb80813          	addi	a6,a6,-549 # 7d5bfddb <absimm+0x382cd8ac>
      28:	00785893          	srli	a7,a6,0x7
      2c:	01985793          	srli	a5,a6,0x19
      30:	00f8e8b3          	or	a7,a7,a5
      34:	0078d913          	srli	s2,a7,0x7
      38:	0198d793          	srli	a5,a7,0x19
      3c:	00f96933          	or	s2,s2,a5
      40:	00795993          	srli	s3,s2,0x7
      44:	01995793          	srli	a5,s2,0x19
      48:	00f9e9b3          	or	s3,s3,a5
      4c:	0079da13          	srli	s4,s3,0x7
      50:	0199d793          	srli	a5,s3,0x19
      54:	00fa6a33          	or	s4,s4,a5
      58:	007a5a93          	srli	s5,s4,0x7
      5c:	019a5793          	srli	a5,s4,0x19
      60:	00faeab3          	or	s5,s5,a5
      64:	007adb13          	srli	s6,s5,0x7
      68:	019ad793          	srli	a5,s5,0x19
      6c:	00fb6b33          	or	s6,s6,a5
      70:	007b5b93          	srli	s7,s6,0x7
      74:	019b5793          	srli	a5,s6,0x19
      78:	00fbebb3          	or	s7,s7,a5
      7c:	007bdc13          	srli	s8,s7,0x7
      80:	019bd793          	srli	a5,s7,0x19
      84:	00fc6c33          	or	s8,s8,a5
      88:	007c5c93          	srli	s9,s8,0x7
      8c:	019c5793          	srli	a5,s8,0x19
      90:	00fcecb3          	or	s9,s9,a5
      94:	007cdd13          	srli	s10,s9,0x7
      98:	019cd793          	srli	a5,s9,0x19
      9c:	00fd6d33          	or	s10,s10,a5
      a0:	007d5d93          	srli	s11,s10,0x7
      a4:	019d5793          	srli	a5,s10,0x19
      a8:	00fdedb3          	or	s11,s11,a5
      ac:	007dde13          	srli	t3,s11,0x7
      b0:	019dd793          	srli	a5,s11,0x19
      b4:	00fe6e33          	or	t3,t3,a5
      b8:	007e5e93          	srli	t4,t3,0x7
      bc:	019e5793          	srli	a5,t3,0x19
      c0:	00feeeb3          	or	t4,t4,a5
      c4:	007edf13          	srli	t5,t4,0x7
      c8:	019ed793          	srli	a5,t4,0x19
      cc:	00ff6f33          	or	t5,t5,a5
      d0:	feedc0b7          	lui	ra,0xfeedc
      d4:	ead08093          	addi	ra,ra,-339 # feedbead <immx+0x441ce3dd>
      d8:	0070d113          	srli	sp,ra,0x7
      dc:	0190d793          	srli	a5,ra,0x19
      e0:	00f16133          	or	sp,sp,a5
      e4:	00715193          	srli	gp,sp,0x7
      e8:	01915793          	srli	a5,sp,0x19
      ec:	00f1e1b3          	or	gp,gp,a5
      f0:	0071d213          	srli	tp,gp,0x7
      f4:	0191d793          	srli	a5,gp,0x19
      f8:	00f26233          	or	tp,tp,a5
      fc:	00725293          	srli	t0,tp,0x7
     100:	01925793          	srli	a5,tp,0x19
     104:	00f2e2b3          	or	t0,t0,a5
     108:	0072d313          	srli	t1,t0,0x7
     10c:	0192d793          	srli	a5,t0,0x19
     110:	00f36333          	or	t1,t1,a5
     114:	00735393          	srli	t2,t1,0x7
     118:	01935793          	srli	a5,t1,0x19
     11c:	00f3e3b3          	or	t2,t2,a5
     120:	0073d413          	srli	s0,t2,0x7
     124:	0193d793          	srli	a5,t2,0x19
     128:	00f46433          	or	s0,s0,a5
     12c:	00745493          	srli	s1,s0,0x7
     130:	01945793          	srli	a5,s0,0x19
     134:	00f4e4b3          	or	s1,s1,a5
     138:	0074d513          	srli	a0,s1,0x7
     13c:	0194d793          	srli	a5,s1,0x19
     140:	00f56533          	or	a0,a0,a5
     144:	00755593          	srli	a1,a0,0x7
     148:	01955793          	srli	a5,a0,0x19
     14c:	00f5e5b3          	or	a1,a1,a5
     150:	0075d613          	srli	a2,a1,0x7
     154:	0195d793          	srli	a5,a1,0x19
     158:	00f66633          	or	a2,a2,a5
     15c:	00765693          	srli	a3,a2,0x7
     160:	01965793          	srli	a5,a2,0x19
     164:	00f6e6b3          	or	a3,a3,a5

00000168 <rvtest_code_begin>:
     168:	00000013          	nop
     16c:	00000013          	nop
     170:	00000013          	nop
     174:	00000013          	nop
     178:	00000013          	nop
     17c:	00000013          	nop
     180:	00005197          	auipc	gp,0x5
     184:	f9418193          	addi	gp,gp,-108 # 5114 <signature_x3_0>
     188:	00000013          	nop
     18c:	00000013          	nop
     190:	00000013          	nop
     194:	00000013          	nop
     198:	00000013          	nop
     19c:	00000013          	nop

000001a0 <inst_0>:
- tp (x4), load 0x800000000 to x4 -> works 
     1a0:	80000237          	lui	tp,0x80000
- Adds -1 to x4 -> works
     1a4:	fff20213          	addi	tp,tp,-1 # 7fffffff <absimm+0x3ad0dad0>
- Works
     1a8:	00100c13          	li	s8,1
- Works  (becomes 0x8000000)
     1ac:	01820c33          	add	s8,tp,s8
- Actual write is done to 0x5114 with data 0x0, instead of 0x80000000 stored at x4
- Maybe something wrong with the data-hazard unit
     1b0:	0181a023          	sw	s8,0(gp)

000001b4 <inst_1>:
     1b4:	00020537          	lui	a0,0x20
     1b8:	00020537          	lui	a0,0x20
     1bc:	00a50e33          	add	t3,a0,a0
     1c0:	01c1a223          	sw	t3,4(gp)

000001c4 <inst_2    >:
     1c4:	ff000ab7          	lui	s5,0xff000
     1c8:	fffa8a93          	addi	s5,s5,-1 # feffffff <immx+0x442f252f>
     1cc:	ff000ab7          	lui	s5,0xff000
     1d0:	fffa8a93          	addi	s5,s5,-1 # feffffff <immx+0x442f252f>
     1d4:	015a8ab3          	add	s5,s5,s5
     1d8:	0151a423          	sw	s5,8(gp)

000001dc <inst_3>:
     1dc:	ffe00b13          	li	s6,-2
     1e0:	00040fb7          	lui	t6,0x40
     1e4:	01fb0b33          	add	s6,s6,t6
     1e8:	0161a623          	sw	s6,12(gp)

000001ec <inst_4>:
     1ec:	55555637          	lui	a2,0x55555
     1f0:	55660613          	addi	a2,a2,1366 # 55555556 <absimm+0x10263027>
     1f4:	55555337          	lui	t1,0x55555
     1f8:	55630313          	addi	t1,t1,1366 # 55555556 <absimm+0x10263027>
     1fc:	006605b3          	add	a1,a2,t1
     200:	00b1a823          	sw	a1,16(gp)

00000204 <inst_5>:
     204:	00200e93          	li	t4,2
     208:	800006b7          	lui	a3,0x80000
     20c:	00de8533          	add	a0,t4,a3
     210:	00a1aa23          	sw	a0,20(gp)

00000214 <inst_6>:
     214:	fef00f93          	li	t6,-17
     218:	00000293          	li	t0,0
     21c:	005f8d33          	add	s10,t6,t0
     220:	01a1ac23          	sw	s10,24(gp)

00000224 <inst_7>:
     224:	66666137          	lui	sp,0x66666
     228:	66610113          	addi	sp,sp,1638 # 66666666 <absimm+0x21374137>
     22c:	800000b7          	lui	ra,0x80000
     230:	fff08093          	addi	ra,ra,-1 # 7fffffff <absimm+0x3ad0dad0>
     234:	001103b3          	add	t2,sp,ra
     238:	0071ae23          	sw	t2,28(gp)

0000023c <inst_8>:
     23c:	80000437          	lui	s0,0x80000
     240:	aaaabcb7          	lui	s9,0xaaaab
     244:	aaac8c93          	addi	s9,s9,-1366 # aaaaaaaa <absimm+0x657b857b>
     248:	01940733          	add	a4,s0,s9
     24c:	02e1a023          	sw	a4,32(gp)

00000250 <inst_9>:
     250:	00000693          	li	a3,0
     254:	fe000437          	lui	s0,0xfe000
     258:	fff40413          	addi	s0,s0,-1 # fdffffff <immx+0x432f252f>
     25c:	008680b3          	add	ra,a3,s0
     260:	0211a223          	sw	ra,36(gp)

00000264 <inst_10>:
     264:	00100e13          	li	t3,1
     268:	008004b7          	lui	s1,0x800
     26c:	009e0033          	add	zero,t3,s1
     270:	0201a423          	sw	zero,40(gp)

00000274 <inst_11>:
     274:	00700713          	li	a4,7
     278:	00200213          	li	tp,2
     27c:	00470a33          	add	s4,a4,tp
     280:	0341a623          	sw	s4,44(gp)

00000284 <inst_12>:
     284:	00800393          	li	t2,8
     288:	00400993          	li	s3,4
     28c:	01338833          	add	a6,t2,s3
     290:	0301a823          	sw	a6,48(gp)

00000294 <inst_13>:
     294:	00001bb7          	lui	s7,0x1
     298:	800b8b93          	addi	s7,s7,-2048 # 800 <inst_81+0x10>
     29c:	00800e93          	li	t4,8
     2a0:	01db8433          	add	s0,s7,t4
     2a4:	0281aa23          	sw	s0,52(gp)

000002a8 <inst_14>:
     2a8:	00000293          	li	t0,0
     2ac:	01000d93          	li	s11,16
     2b0:	01b286b3          	add	a3,t0,s11
     2b4:	02d1ac23          	sw	a3,56(gp)

000002b8 <inst_15>:
     2b8:	55555cb7          	lui	s9,0x55555
     2bc:	556c8c93          	addi	s9,s9,1366 # 55555556 <absimm+0x10263027>
     2c0:	02000a13          	li	s4,32
     2c4:	014c8db3          	add	s11,s9,s4
     2c8:	03b1ae23          	sw	s11,60(gp)

000002cc <inst_16>:
     2cc:	fef00793          	li	a5,-17
     2d0:	04000d13          	li	s10,64
     2d4:	01a788b3          	add	a7,a5,s10
     2d8:	0511a023          	sw	a7,64(gp)
     2dc:	00000013          	nop
     2e0:	00005417          	auipc	s0,0x5
     2e4:	e7840413          	addi	s0,s0,-392 # 5158 <signature_x8_0>
     2e8:	00000013          	nop
     2ec:	00000013          	nop
     2f0:	00000013          	nop
     2f4:	00000013          	nop
     2f8:	00000013          	nop
     2fc:	00000013          	nop

00000300 <inst_17>:
     300:	ffb00893          	li	a7,-5
     304:	08000113          	li	sp,128
     308:	00288eb3          	add	t4,a7,sp
     30c:	01d42023          	sw	t4,0(s0)

00000310 <inst_18>:
     310:	02000c13          	li	s8,32
     314:	10000893          	li	a7,256
     318:	011c0233          	add	tp,s8,a7
     31c:	00442223          	sw	tp,4(s0)

00000320 <inst_19>:
     320:	40000837          	lui	a6,0x40000
     324:	20000593          	li	a1,512
     328:	00b80133          	add	sp,a6,a1
     32c:	00242423          	sw	sp,8(s0)

00000330 <inst_20>:
     330:	00000013          	nop
     334:	40000813          	li	a6,1024
     338:	01000333          	add	t1,zero,a6
     33c:	00642623          	sw	t1,12(s0)

00000340 <inst_21>:
     340:	aaaab5b7          	lui	a1,0xaaaab
     344:	aab58593          	addi	a1,a1,-1365 # aaaaaaab <absimm+0x657b857c>
     348:	000011b7          	lui	gp,0x1
     34c:	80018193          	addi	gp,gp,-2048 # 800 <inst_81+0x10>
     350:	00358fb3          	add	t6,a1,gp
     354:	01f42823          	sw	t6,16(s0)

00000358 <inst_22>:
     358:	00400913          	li	s2,4
     35c:	00000013          	nop
     360:	00090633          	add	a2,s2,zero
     364:	00c42a23          	sw	a2,20(s0)

00000368 <inst_23>:
     368:	fe000f37          	lui	t5,0xfe000
     36c:	ffff0f13          	addi	t5,t5,-1 # fdffffff <immx+0x432f252f>
     370:	000023b7          	lui	t2,0x2
     374:	007f04b3          	add	s1,t5,t2
     378:	00942c23          	sw	s1,24(s0)

0000037c <inst_24>:
     37c:	0000b1b7          	lui	gp,0xb
     380:	50318193          	addi	gp,gp,1283 # b503 <fromhost+0x5903>
     384:	00004f37          	lui	t5,0x4
     388:	01e182b3          	add	t0,gp,t5
     38c:	00542e23          	sw	t0,28(s0)

00000390 <inst_25>:
     390:	ffff5db7          	lui	s11,0xffff5
     394:	afdd8d93          	addi	s11,s11,-1283 # ffff4afd <immx+0x452e702d>
     398:	00008e37          	lui	t3,0x8
     39c:	01cd8933          	add	s2,s11,t3
     3a0:	03242023          	sw	s2,32(s0)

000003a4 <inst_26>:
     3a4:	dff00493          	li	s1,-513
     3a8:	00010737          	lui	a4,0x10
     3ac:	00e487b3          	add	a5,s1,a4
     3b0:	02f42223          	sw	a5,36(s0)

000003b4 <inst_27>:
     3b4:	04000d13          	li	s10,64
     3b8:	000207b7          	lui	a5,0x20
     3bc:	00fd01b3          	add	gp,s10,a5
     3c0:	02342423          	sw	gp,40(s0)

000003c4 <inst_28>:
     3c4:	00300093          	li	ra,3
     3c8:	00080937          	lui	s2,0x80
     3cc:	01208bb3          	add	s7,ra,s2
     3d0:	03742623          	sw	s7,44(s0)

000003d4 <inst_29>:
     3d4:	ffff0337          	lui	t1,0xffff0
     3d8:	fff30313          	addi	t1,t1,-1 # fffeffff <immx+0x452e252f>
     3dc:	00100637          	lui	a2,0x100
     3e0:	00c30f33          	add	t5,t1,a2
     3e4:	03e42823          	sw	t5,48(s0)

000003e8 <inst_30>:
     3e8:	ffc00a37          	lui	s4,0xffc00
     3ec:	fffa0a13          	addi	s4,s4,-1 # ffbfffff <immx+0x44ef252f>
     3f0:	00200b37          	lui	s6,0x200
     3f4:	016a09b3          	add	s3,s4,s6
     3f8:	03342a23          	sw	s3,52(s0)

000003fc <inst_31>:
     3fc:	004009b7          	lui	s3,0x400
     400:	00400bb7          	lui	s7,0x400
     404:	01798cb3          	add	s9,s3,s7
     408:	03942c23          	sw	s9,56(s0)

0000040c <inst_32>:
     40c:	ffff5537          	lui	a0,0xffff5
     410:	afd50513          	addi	a0,a0,-1283 # ffff4afd <immx+0x452e702d>
     414:	010005b7          	lui	a1,0x1000
     418:	00b50633          	add	a2,a0,a1
     41c:	02c42e23          	sw	a2,60(s0)
     420:	00005097          	auipc	ra,0x5
     424:	d7808093          	addi	ra,ra,-648 # 5198 <signature_x1_0>
     428:	00000013          	nop
     42c:	00000013          	nop
     430:	00000013          	nop
     434:	00000013          	nop
     438:	00000013          	nop
     43c:	00000013          	nop

00000440 <inst_33>:
     440:	fffe0537          	lui	a0,0xfffe0
     444:	fff50513          	addi	a0,a0,-1 # fffdffff <immx+0x452d252f>
     448:	020005b7          	lui	a1,0x2000
     44c:	00b50633          	add	a2,a0,a1
     450:	00c0a023          	sw	a2,0(ra)

00000454 <inst_34>:
     454:	00000513          	li	a0,0
     458:	040005b7          	lui	a1,0x4000
     45c:	00b50633          	add	a2,a0,a1
     460:	00c0a223          	sw	a2,4(ra)

00000464 <inst_35>:
     464:	ffff8537          	lui	a0,0xffff8
     468:	fff50513          	addi	a0,a0,-1 # ffff7fff <immx+0x452ea52f>
     46c:	080005b7          	lui	a1,0x8000
     470:	00b50633          	add	a2,a0,a1
     474:	00c0a423          	sw	a2,8(ra)

00000478 <inst_36>:
     478:	40000537          	lui	a0,0x40000
     47c:	100005b7          	lui	a1,0x10000
     480:	00b50633          	add	a2,a0,a1
     484:	00c0a623          	sw	a2,12(ra)

00000488 <inst_37>:
     488:	ffffc537          	lui	a0,0xffffc
     48c:	fff50513          	addi	a0,a0,-1 # ffffbfff <immx+0x452ee52f>
     490:	200005b7          	lui	a1,0x20000
     494:	00b50633          	add	a2,a0,a1
     498:	00c0a823          	sw	a2,16(ra)

0000049c <inst_38>:
     49c:	00010537          	lui	a0,0x10
     4a0:	400005b7          	lui	a1,0x40000
     4a4:	00b50633          	add	a2,a0,a1
     4a8:	00c0aa23          	sw	a2,20(ra)

000004ac <inst_39>:
     4ac:	00400513          	li	a0,4
     4b0:	ffe00593          	li	a1,-2
     4b4:	00b50633          	add	a2,a0,a1
     4b8:	00c0ac23          	sw	a2,24(ra)

000004bc <inst_40>:
     4bc:	fdf00513          	li	a0,-33
     4c0:	ffd00593          	li	a1,-3
     4c4:	00b50633          	add	a2,a0,a1
     4c8:	00c0ae23          	sw	a2,28(ra)

000004cc <inst_41>:
     4cc:	fdf00513          	li	a0,-33
     4d0:	ffb00593          	li	a1,-5
     4d4:	00b50633          	add	a2,a0,a1
     4d8:	02c0a023          	sw	a2,32(ra)

000004dc <inst_42>:
     4dc:	fffe0537          	lui	a0,0xfffe0
     4e0:	fff50513          	addi	a0,a0,-1 # fffdffff <immx+0x452d252f>
     4e4:	ff700593          	li	a1,-9
     4e8:	00b50633          	add	a2,a0,a1
     4ec:	02c0a223          	sw	a2,36(ra)

000004f0 <inst_43>:
     4f0:	00001537          	lui	a0,0x1
     4f4:	80050513          	addi	a0,a0,-2048 # 800 <inst_81+0x10>
     4f8:	fef00593          	li	a1,-17
     4fc:	00b50633          	add	a2,a0,a1
     500:	02c0a423          	sw	a2,40(ra)

00000504 <inst_44>:
     504:	20000537          	lui	a0,0x20000
     508:	fdf00593          	li	a1,-33
     50c:	00b50633          	add	a2,a0,a1
     510:	02c0a623          	sw	a2,44(ra)

00000514 <inst_45>:
     514:	80000537          	lui	a0,0x80000
     518:	fff50513          	addi	a0,a0,-1 # 7fffffff <absimm+0x3ad0dad0>
     51c:	fbf00593          	li	a1,-65
     520:	00b50633          	add	a2,a0,a1
     524:	02c0a823          	sw	a2,48(ra)

00000528 <inst_46>:
     528:	ff800537          	lui	a0,0xff800
     52c:	fff50513          	addi	a0,a0,-1 # ff7fffff <immx+0x44af252f>
     530:	f7f00593          	li	a1,-129
     534:	00b50633          	add	a2,a0,a1
     538:	02c0aa23          	sw	a2,52(ra)

0000053c <inst_47>:
     53c:	ffff5537          	lui	a0,0xffff5
     540:	afc50513          	addi	a0,a0,-1284 # ffff4afc <immx+0x452e702c>
     544:	dff00593          	li	a1,-513
     548:	00b50633          	add	a2,a0,a1
     54c:	02c0ac23          	sw	a2,56(ra)

00000550 <inst_48>:
     550:	fffff537          	lui	a0,0xfffff
     554:	fff50513          	addi	a0,a0,-1 # ffffefff <immx+0x452f152f>
     558:	bff00593          	li	a1,-1025
     55c:	00b50633          	add	a2,a0,a1
     560:	02c0ae23          	sw	a2,60(ra)

00000564 <inst_49>:
     564:	00400513          	li	a0,4
     568:	fffff5b7          	lui	a1,0xfffff
     56c:	7ff58593          	addi	a1,a1,2047 # fffff7ff <immx+0x452f1d2f>
     570:	00b50633          	add	a2,a0,a1
     574:	04c0a023          	sw	a2,64(ra)

00000578 <inst_50>:
     578:	ffff5537          	lui	a0,0xffff5
     57c:	afd50513          	addi	a0,a0,-1283 # ffff4afd <immx+0x452e702d>
     580:	fffff5b7          	lui	a1,0xfffff
     584:	fff58593          	addi	a1,a1,-1 # ffffefff <immx+0x452f152f>
     588:	00b50633          	add	a2,a0,a1
     58c:	04c0a223          	sw	a2,68(ra)

00000590 <inst_51>:
     590:	0000b537          	lui	a0,0xb
     594:	50450513          	addi	a0,a0,1284 # b504 <fromhost+0x5904>
     598:	ffffe5b7          	lui	a1,0xffffe
     59c:	fff58593          	addi	a1,a1,-1 # ffffdfff <immx+0x452f052f>
     5a0:	00b50633          	add	a2,a0,a1
     5a4:	04c0a423          	sw	a2,72(ra)

000005a8 <inst_52>:
     5a8:	80000537          	lui	a0,0x80000
     5ac:	fff50513          	addi	a0,a0,-1 # 7fffffff <absimm+0x3ad0dad0>
     5b0:	ffffc5b7          	lui	a1,0xffffc
     5b4:	fff58593          	addi	a1,a1,-1 # ffffbfff <immx+0x452ee52f>
     5b8:	00b50633          	add	a2,a0,a1
     5bc:	04c0a623          	sw	a2,76(ra)

000005c0 <inst_53>:
     5c0:	ffd00513          	li	a0,-3
     5c4:	ffff85b7          	lui	a1,0xffff8
     5c8:	fff58593          	addi	a1,a1,-1 # ffff7fff <immx+0x452ea52f>
     5cc:	00b50633          	add	a2,a0,a1
     5d0:	04c0a823          	sw	a2,80(ra)

000005d4 <inst_54>:
     5d4:	0000b537          	lui	a0,0xb
     5d8:	50350513          	addi	a0,a0,1283 # b503 <fromhost+0x5903>
     5dc:	ffff05b7          	lui	a1,0xffff0
     5e0:	fff58593          	addi	a1,a1,-1 # fffeffff <immx+0x452e252f>
     5e4:	00b50633          	add	a2,a0,a1
     5e8:	04c0aa23          	sw	a2,84(ra)

000005ec <inst_55>:
     5ec:	aaaab537          	lui	a0,0xaaaab
     5f0:	aaa50513          	addi	a0,a0,-1366 # aaaaaaaa <absimm+0x657b857b>
     5f4:	fffe05b7          	lui	a1,0xfffe0
     5f8:	fff58593          	addi	a1,a1,-1 # fffdffff <immx+0x452d252f>
     5fc:	00b50633          	add	a2,a0,a1
     600:	04c0ac23          	sw	a2,88(ra)

00000604 <inst_56>:
     604:	01000537          	lui	a0,0x1000
     608:	fffc05b7          	lui	a1,0xfffc0
     60c:	fff58593          	addi	a1,a1,-1 # fffbffff <immx+0x452b252f>
     610:	00b50633          	add	a2,a0,a1
     614:	04c0ae23          	sw	a2,92(ra)

00000618 <inst_57>:
     618:	80000537          	lui	a0,0x80000
     61c:	fff50513          	addi	a0,a0,-1 # 7fffffff <absimm+0x3ad0dad0>
     620:	fff805b7          	lui	a1,0xfff80
     624:	fff58593          	addi	a1,a1,-1 # fff7ffff <immx+0x4527252f>
     628:	00b50633          	add	a2,a0,a1
     62c:	06c0a023          	sw	a2,96(ra)

00000630 <inst_58>:
     630:	00001537          	lui	a0,0x1
     634:	80050513          	addi	a0,a0,-2048 # 800 <inst_81+0x10>
     638:	fff005b7          	lui	a1,0xfff00
     63c:	fff58593          	addi	a1,a1,-1 # ffefffff <immx+0x451f252f>
     640:	00b50633          	add	a2,a0,a1
     644:	06c0a223          	sw	a2,100(ra)

00000648 <inst_59>:
     648:	00800513          	li	a0,8
     64c:	ffe005b7          	lui	a1,0xffe00
     650:	fff58593          	addi	a1,a1,-1 # ffdfffff <immx+0x450f252f>
     654:	00b50633          	add	a2,a0,a1
     658:	06c0a423          	sw	a2,104(ra)

0000065c <inst_60>:
     65c:	00002537          	lui	a0,0x2
     660:	ffc005b7          	lui	a1,0xffc00
     664:	fff58593          	addi	a1,a1,-1 # ffbfffff <immx+0x44ef252f>
     668:	00b50633          	add	a2,a0,a1
     66c:	06c0a623          	sw	a2,108(ra)

00000670 <inst_61>:
     670:	fdf00513          	li	a0,-33
     674:	ff8005b7          	lui	a1,0xff800
     678:	fff58593          	addi	a1,a1,-1 # ff7fffff <immx+0x44af252f>
     67c:	00b50633          	add	a2,a0,a1
     680:	06c0a823          	sw	a2,112(ra)

00000684 <inst_62>:
     684:	ffe00537          	lui	a0,0xffe00
     688:	fff50513          	addi	a0,a0,-1 # ffdfffff <immx+0x450f252f>
     68c:	ff0005b7          	lui	a1,0xff000
     690:	fff58593          	addi	a1,a1,-1 # feffffff <immx+0x442f252f>
     694:	00b50633          	add	a2,a0,a1
     698:	06c0aa23          	sw	a2,116(ra)

0000069c <inst_63>:
     69c:	00200513          	li	a0,2
     6a0:	fc0005b7          	lui	a1,0xfc000
     6a4:	fff58593          	addi	a1,a1,-1 # fbffffff <immx+0x412f252f>
     6a8:	00b50633          	add	a2,a0,a1
     6ac:	06c0ac23          	sw	a2,120(ra)

000006b0 <inst_64>:
     6b0:	55555537          	lui	a0,0x55555
     6b4:	55550513          	addi	a0,a0,1365 # 55555555 <absimm+0x10263026>
     6b8:	f80005b7          	lui	a1,0xf8000
     6bc:	fff58593          	addi	a1,a1,-1 # f7ffffff <immx+0x3d2f252f>
     6c0:	00b50633          	add	a2,a0,a1
     6c4:	06c0ae23          	sw	a2,124(ra)

000006c8 <inst_65>:
     6c8:	00020537          	lui	a0,0x20
     6cc:	f00005b7          	lui	a1,0xf0000
     6d0:	fff58593          	addi	a1,a1,-1 # efffffff <immx+0x352f252f>
     6d4:	00b50633          	add	a2,a0,a1
     6d8:	08c0a023          	sw	a2,128(ra)

000006dc <inst_66>:
     6dc:	00020537          	lui	a0,0x20
     6e0:	e00005b7          	lui	a1,0xe0000
     6e4:	fff58593          	addi	a1,a1,-1 # dfffffff <immx+0x252f252f>
     6e8:	00b50633          	add	a2,a0,a1
     6ec:	08c0a223          	sw	a2,132(ra)

000006f0 <inst_67>:
     6f0:	00700513          	li	a0,7
     6f4:	c00005b7          	lui	a1,0xc0000
     6f8:	fff58593          	addi	a1,a1,-1 # bfffffff <immx+0x52f252f>
     6fc:	00b50633          	add	a2,a0,a1
     700:	08c0a423          	sw	a2,136(ra)

00000704 <inst_68>:
     704:	00100537          	lui	a0,0x100
     708:	555555b7          	lui	a1,0x55555
     70c:	55558593          	addi	a1,a1,1365 # 55555555 <absimm+0x10263026>
     710:	00b50633          	add	a2,a0,a1
     714:	08c0a623          	sw	a2,140(ra)

00000718 <inst_69>:
     718:	01000513          	li	a0,16
     71c:	333335b7          	lui	a1,0x33333
     720:	33358593          	addi	a1,a1,819 # 33333333 <fromhost+0x3332d733>
     724:	00b50633          	add	a2,a0,a1
     728:	08c0a823          	sw	a2,144(ra)

0000072c <inst_70>:
     72c:	08000513          	li	a0,128
     730:	333335b7          	lui	a1,0x33333
     734:	33258593          	addi	a1,a1,818 # 33333332 <fromhost+0x3332d732>
     738:	00b50633          	add	a2,a0,a1
     73c:	08c0aa23          	sw	a2,148(ra)

00000740 <inst_71>:
     740:	10000513          	li	a0,256
     744:	ff600593          	li	a1,-10
     748:	00b50633          	add	a2,a0,a1
     74c:	08c0ac23          	sw	a2,152(ra)

00000750 <inst_72>:
     750:	20000513          	li	a0,512
     754:	ffff55b7          	lui	a1,0xffff5
     758:	afd58593          	addi	a1,a1,-1283 # ffff4afd <immx+0x452e702d>
     75c:	00b50633          	add	a2,a0,a1
     760:	08c0ae23          	sw	a2,156(ra)

00000764 <inst_73>:
     764:	40000513          	li	a0,1024
     768:	555555b7          	lui	a1,0x55555
     76c:	55558593          	addi	a1,a1,1365 # 55555555 <absimm+0x10263026>
     770:	00b50633          	add	a2,a0,a1
     774:	0ac0a023          	sw	a2,160(ra)

00000778 <inst_74>:
     778:	00001537          	lui	a0,0x1
     77c:	00500593          	li	a1,5
     780:	00b50633          	add	a2,a0,a1
     784:	0ac0a223          	sw	a2,164(ra)

00000788 <inst_75>:
     788:	00004537          	lui	a0,0x4
     78c:	fffff5b7          	lui	a1,0xfffff
     790:	7ff58593          	addi	a1,a1,2047 # fffff7ff <immx+0x452f1d2f>
     794:	00b50633          	add	a2,a0,a1
     798:	0ac0a423          	sw	a2,168(ra)

0000079c <inst_76>:
     79c:	00008537          	lui	a0,0x8
     7a0:	ff0005b7          	lui	a1,0xff000
     7a4:	fff58593          	addi	a1,a1,-1 # feffffff <immx+0x442f252f>
     7a8:	00b50633          	add	a2,a0,a1
     7ac:	0ac0a623          	sw	a2,172(ra)

000007b0 <inst_77>:
     7b0:	00040537          	lui	a0,0x40
     7b4:	010005b7          	lui	a1,0x1000
     7b8:	00b50633          	add	a2,a0,a1
     7bc:	0ac0a823          	sw	a2,176(ra)

000007c0 <inst_78>:
     7c0:	00080537          	lui	a0,0x80
     7c4:	000085b7          	lui	a1,0x8
     7c8:	00b50633          	add	a2,a0,a1
     7cc:	0ac0aa23          	sw	a2,180(ra)

000007d0 <inst_79>:
     7d0:	00200537          	lui	a0,0x200
     7d4:	100005b7          	lui	a1,0x10000
     7d8:	00b50633          	add	a2,a0,a1
     7dc:	0ac0ac23          	sw	a2,184(ra)

000007e0 <inst_80>:
     7e0:	00800537          	lui	a0,0x800
     7e4:	bff00593          	li	a1,-1025
     7e8:	00b50633          	add	a2,a0,a1
     7ec:	0ac0ae23          	sw	a2,188(ra)

000007f0 <inst_81>:
     7f0:	02000537          	lui	a0,0x2000
     7f4:	555555b7          	lui	a1,0x55555
     7f8:	55558593          	addi	a1,a1,1365 # 55555555 <absimm+0x10263026>
     7fc:	00b50633          	add	a2,a0,a1
     800:	0cc0a023          	sw	a2,192(ra)

00000804 <inst_82>:
     804:	04000537          	lui	a0,0x4000
     808:	000085b7          	lui	a1,0x8
     80c:	00b50633          	add	a2,a0,a1
     810:	0cc0a223          	sw	a2,196(ra)

00000814 <inst_83>:
     814:	08000537          	lui	a0,0x8000
     818:	333335b7          	lui	a1,0x33333
     81c:	33258593          	addi	a1,a1,818 # 33333332 <fromhost+0x3332d732>
     820:	00b50633          	add	a2,a0,a1
     824:	0cc0a423          	sw	a2,200(ra)

00000828 <inst_84>:
     828:	10000537          	lui	a0,0x10000
     82c:	c00005b7          	lui	a1,0xc0000
     830:	00b50633          	add	a2,a0,a1
     834:	0cc0a623          	sw	a2,204(ra)

00000838 <inst_85>:
     838:	ff700513          	li	a0,-9
     83c:	fff805b7          	lui	a1,0xfff80
     840:	fff58593          	addi	a1,a1,-1 # fff7ffff <immx+0x4527252f>
     844:	00b50633          	add	a2,a0,a1
     848:	0cc0a823          	sw	a2,208(ra)

0000084c <inst_86>:
     84c:	fbf00513          	li	a0,-65
     850:	800005b7          	lui	a1,0x80000
     854:	00b50633          	add	a2,a0,a1
     858:	0cc0aa23          	sw	a2,212(ra)

0000085c <inst_87>:
     85c:	f7f00513          	li	a0,-129
     860:	aaaab5b7          	lui	a1,0xaaaab
     864:	aaa58593          	addi	a1,a1,-1366 # aaaaaaaa <absimm+0x657b857b>
     868:	00b50633          	add	a2,a0,a1
     86c:	0cc0ac23          	sw	a2,216(ra)

00000870 <inst_88>:
     870:	eff00513          	li	a0,-257
     874:	00300593          	li	a1,3
     878:	00b50633          	add	a2,a0,a1
     87c:	0cc0ae23          	sw	a2,220(ra)

00000880 <inst_89>:
     880:	bff00513          	li	a0,-1025
     884:	ff800593          	li	a1,-8
     888:	00b50633          	add	a2,a0,a1
     88c:	0ec0a023          	sw	a2,224(ra)

00000890 <inst_90>:
     890:	fffff537          	lui	a0,0xfffff
     894:	7ff50513          	addi	a0,a0,2047 # fffff7ff <immx+0x452f1d2f>
     898:	00300593          	li	a1,3
     89c:	00b50633          	add	a2,a0,a1
     8a0:	0ec0a223          	sw	a2,228(ra)

000008a4 <inst_91>:
     8a4:	ffffe537          	lui	a0,0xffffe
     8a8:	fff50513          	addi	a0,a0,-1 # ffffdfff <immx+0x452f052f>
     8ac:	00200593          	li	a1,2
     8b0:	00b50633          	add	a2,a0,a1
     8b4:	0ec0a423          	sw	a2,232(ra)

000008b8 <inst_92>:
     8b8:	fffc0537          	lui	a0,0xfffc0
     8bc:	fff50513          	addi	a0,a0,-1 # fffbffff <immx+0x452b252f>
     8c0:	ff8005b7          	lui	a1,0xff800
     8c4:	fff58593          	addi	a1,a1,-1 # ff7fffff <immx+0x44af252f>
     8c8:	00b50633          	add	a2,a0,a1
     8cc:	0ec0a623          	sw	a2,236(ra)

000008d0 <inst_93>:
     8d0:	fff80537          	lui	a0,0xfff80
     8d4:	fff50513          	addi	a0,a0,-1 # fff7ffff <immx+0x4527252f>
     8d8:	0000b5b7          	lui	a1,0xb
     8dc:	50458593          	addi	a1,a1,1284 # b504 <fromhost+0x5904>
     8e0:	00b50633          	add	a2,a0,a1
     8e4:	0ec0a823          	sw	a2,240(ra)

000008e8 <inst_94>:
     8e8:	fff00537          	lui	a0,0xfff00
     8ec:	fff50513          	addi	a0,a0,-1 # ffefffff <immx+0x451f252f>
     8f0:	c00005b7          	lui	a1,0xc0000
     8f4:	00b50633          	add	a2,a0,a1
     8f8:	0ec0aa23          	sw	a2,244(ra)

000008fc <inst_95>:
     8fc:	fc000537          	lui	a0,0xfc000
     900:	fff50513          	addi	a0,a0,-1 # fbffffff <immx+0x412f252f>
     904:	666665b7          	lui	a1,0x66666
     908:	66558593          	addi	a1,a1,1637 # 66666665 <absimm+0x21374136>
     90c:	00b50633          	add	a2,a0,a1
     910:	0ec0ac23          	sw	a2,248(ra)

00000914 <inst_96>:
     914:	f8000537          	lui	a0,0xf8000
     918:	fff50513          	addi	a0,a0,-1 # f7ffffff <immx+0x3d2f252f>
     91c:	f00005b7          	lui	a1,0xf0000
     920:	fff58593          	addi	a1,a1,-1 # efffffff <immx+0x352f252f>
     924:	00b50633          	add	a2,a0,a1
     928:	0ec0ae23          	sw	a2,252(ra)

0000092c <inst_97>:
     92c:	f0000537          	lui	a0,0xf0000
     930:	fff50513          	addi	a0,a0,-1 # efffffff <immx+0x352f252f>
     934:	000015b7          	lui	a1,0x1
     938:	80058593          	addi	a1,a1,-2048 # 800 <inst_81+0x10>
     93c:	00b50633          	add	a2,a0,a1
     940:	10c0a023          	sw	a2,256(ra)

00000944 <inst_98>:
     944:	e0000537          	lui	a0,0xe0000
     948:	fff50513          	addi	a0,a0,-1 # dfffffff <immx+0x252f252f>
     94c:	000205b7          	lui	a1,0x20
     950:	00b50633          	add	a2,a0,a1
     954:	10c0a223          	sw	a2,260(ra)

00000958 <inst_99>:
     958:	c0000537          	lui	a0,0xc0000
     95c:	fff50513          	addi	a0,a0,-1 # bfffffff <immx+0x52f252f>
     960:	f7f00593          	li	a1,-129
     964:	00b50633          	add	a2,a0,a1
     968:	10c0a423          	sw	a2,264(ra)

0000096c <inst_100>:
     96c:	00300513          	li	a0,3
     970:	00300593          	li	a1,3
     974:	00b50633          	add	a2,a0,a1
     978:	10c0a623          	sw	a2,268(ra)

0000097c <inst_101>:
     97c:	00300513          	li	a0,3
     980:	555555b7          	lui	a1,0x55555
     984:	55558593          	addi	a1,a1,1365 # 55555555 <absimm+0x10263026>
     988:	00b50633          	add	a2,a0,a1
     98c:	10c0a823          	sw	a2,272(ra)

00000990 <inst_102>:
     990:	00300513          	li	a0,3
     994:	aaaab5b7          	lui	a1,0xaaaab
     998:	aaa58593          	addi	a1,a1,-1366 # aaaaaaaa <absimm+0x657b857b>
     99c:	00b50633          	add	a2,a0,a1
     9a0:	10c0aa23          	sw	a2,276(ra)

000009a4 <inst_103>:
     9a4:	00300513          	li	a0,3
     9a8:	00500593          	li	a1,5
     9ac:	00b50633          	add	a2,a0,a1
     9b0:	10c0ac23          	sw	a2,280(ra)

000009b4 <inst_104>:
     9b4:	00300513          	li	a0,3
     9b8:	333335b7          	lui	a1,0x33333
     9bc:	33358593          	addi	a1,a1,819 # 33333333 <fromhost+0x3332d733>
     9c0:	00b50633          	add	a2,a0,a1
     9c4:	10c0ae23          	sw	a2,284(ra)

000009c8 <inst_105>:
     9c8:	00300513          	li	a0,3
     9cc:	666665b7          	lui	a1,0x66666
     9d0:	66658593          	addi	a1,a1,1638 # 66666666 <absimm+0x21374137>
     9d4:	00b50633          	add	a2,a0,a1
     9d8:	12c0a023          	sw	a2,288(ra)

000009dc <inst_106>:
     9dc:	00300513          	li	a0,3
     9e0:	ffff55b7          	lui	a1,0xffff5
     9e4:	afc58593          	addi	a1,a1,-1284 # ffff4afc <immx+0x452e702c>
     9e8:	00b50633          	add	a2,a0,a1
     9ec:	12c0a223          	sw	a2,292(ra)

000009f0 <inst_107>:
     9f0:	00300513          	li	a0,3
     9f4:	0000b5b7          	lui	a1,0xb
     9f8:	50458593          	addi	a1,a1,1284 # b504 <fromhost+0x5904>
     9fc:	00b50633          	add	a2,a0,a1
     a00:	12c0a423          	sw	a2,296(ra)

00000a04 <inst_108>:
     a04:	00300513          	li	a0,3
     a08:	00200593          	li	a1,2
     a0c:	00b50633          	add	a2,a0,a1
     a10:	12c0a623          	sw	a2,300(ra)

00000a14 <inst_109>:
     a14:	00300513          	li	a0,3
     a18:	555555b7          	lui	a1,0x55555
     a1c:	55458593          	addi	a1,a1,1364 # 55555554 <absimm+0x10263025>
     a20:	00b50633          	add	a2,a0,a1
     a24:	12c0a823          	sw	a2,304(ra)

00000a28 <inst_110>:
     a28:	00300513          	li	a0,3
     a2c:	00000593          	li	a1,0
     a30:	00b50633          	add	a2,a0,a1
     a34:	12c0aa23          	sw	a2,308(ra)

00000a38 <inst_111>:
     a38:	00300513          	li	a0,3
     a3c:	00400593          	li	a1,4
     a40:	00b50633          	add	a2,a0,a1
     a44:	12c0ac23          	sw	a2,312(ra)

00000a48 <inst_112>:
     a48:	00300513          	li	a0,3
     a4c:	333335b7          	lui	a1,0x33333
     a50:	33258593          	addi	a1,a1,818 # 33333332 <fromhost+0x3332d732>
     a54:	00b50633          	add	a2,a0,a1
     a58:	12c0ae23          	sw	a2,316(ra)

00000a5c <inst_113>:
     a5c:	00300513          	li	a0,3
     a60:	666665b7          	lui	a1,0x66666
     a64:	66558593          	addi	a1,a1,1637 # 66666665 <absimm+0x21374136>
     a68:	00b50633          	add	a2,a0,a1
     a6c:	14c0a023          	sw	a2,320(ra)

00000a70 <inst_114>:
     a70:	00300513          	li	a0,3
     a74:	0000b5b7          	lui	a1,0xb
     a78:	50358593          	addi	a1,a1,1283 # b503 <fromhost+0x5903>
     a7c:	00b50633          	add	a2,a0,a1
     a80:	14c0a223          	sw	a2,324(ra)

00000a84 <inst_115>:
     a84:	00300513          	li	a0,3
     a88:	555555b7          	lui	a1,0x55555
     a8c:	55658593          	addi	a1,a1,1366 # 55555556 <absimm+0x10263027>
     a90:	00b50633          	add	a2,a0,a1
     a94:	14c0a423          	sw	a2,328(ra)

00000a98 <inst_116>:
     a98:	00300513          	li	a0,3
     a9c:	aaaab5b7          	lui	a1,0xaaaab
     aa0:	aab58593          	addi	a1,a1,-1365 # aaaaaaab <absimm+0x657b857c>
     aa4:	00b50633          	add	a2,a0,a1
     aa8:	14c0a623          	sw	a2,332(ra)

00000aac <inst_117>:
     aac:	00300513          	li	a0,3
     ab0:	00600593          	li	a1,6
     ab4:	00b50633          	add	a2,a0,a1
     ab8:	14c0a823          	sw	a2,336(ra)

00000abc <inst_118>:
     abc:	00300513          	li	a0,3
     ac0:	333335b7          	lui	a1,0x33333
     ac4:	33458593          	addi	a1,a1,820 # 33333334 <fromhost+0x3332d734>
     ac8:	00b50633          	add	a2,a0,a1
     acc:	14c0aa23          	sw	a2,340(ra)

00000ad0 <inst_119>:
     ad0:	00300513          	li	a0,3
     ad4:	666665b7          	lui	a1,0x66666
     ad8:	66758593          	addi	a1,a1,1639 # 66666667 <absimm+0x21374138>
     adc:	00b50633          	add	a2,a0,a1
     ae0:	14c0ac23          	sw	a2,344(ra)

00000ae4 <inst_120>:
     ae4:	00300513          	li	a0,3
     ae8:	ffff55b7          	lui	a1,0xffff5
     aec:	afd58593          	addi	a1,a1,-1283 # ffff4afd <immx+0x452e702d>
     af0:	00b50633          	add	a2,a0,a1
     af4:	14c0ae23          	sw	a2,348(ra)

00000af8 <inst_121>:
     af8:	00300513          	li	a0,3
     afc:	0000b5b7          	lui	a1,0xb
     b00:	50558593          	addi	a1,a1,1285 # b505 <fromhost+0x5905>
     b04:	00b50633          	add	a2,a0,a1
     b08:	16c0a023          	sw	a2,352(ra)

00000b0c <inst_122>:
     b0c:	55555537          	lui	a0,0x55555
     b10:	55550513          	addi	a0,a0,1365 # 55555555 <absimm+0x10263026>
     b14:	00300593          	li	a1,3
     b18:	00b50633          	add	a2,a0,a1
     b1c:	16c0a223          	sw	a2,356(ra)

00000b20 <inst_123>:
     b20:	55555537          	lui	a0,0x55555
     b24:	55550513          	addi	a0,a0,1365 # 55555555 <absimm+0x10263026>
     b28:	555555b7          	lui	a1,0x55555
     b2c:	55558593          	addi	a1,a1,1365 # 55555555 <absimm+0x10263026>
     b30:	00b50633          	add	a2,a0,a1
     b34:	16c0a423          	sw	a2,360(ra)

00000b38 <inst_124>:
     b38:	55555537          	lui	a0,0x55555
     b3c:	55550513          	addi	a0,a0,1365 # 55555555 <absimm+0x10263026>
     b40:	aaaab5b7          	lui	a1,0xaaaab
     b44:	aaa58593          	addi	a1,a1,-1366 # aaaaaaaa <absimm+0x657b857b>
     b48:	00b50633          	add	a2,a0,a1
     b4c:	16c0a623          	sw	a2,364(ra)

00000b50 <inst_125>:
     b50:	55555537          	lui	a0,0x55555
     b54:	55550513          	addi	a0,a0,1365 # 55555555 <absimm+0x10263026>
     b58:	00500593          	li	a1,5
     b5c:	00b50633          	add	a2,a0,a1
     b60:	16c0a823          	sw	a2,368(ra)

00000b64 <inst_126>:
     b64:	55555537          	lui	a0,0x55555
     b68:	55550513          	addi	a0,a0,1365 # 55555555 <absimm+0x10263026>
     b6c:	333335b7          	lui	a1,0x33333
     b70:	33358593          	addi	a1,a1,819 # 33333333 <fromhost+0x3332d733>
     b74:	00b50633          	add	a2,a0,a1
     b78:	16c0aa23          	sw	a2,372(ra)

00000b7c <inst_127>:
     b7c:	55555537          	lui	a0,0x55555
     b80:	55550513          	addi	a0,a0,1365 # 55555555 <absimm+0x10263026>
     b84:	666665b7          	lui	a1,0x66666
     b88:	66658593          	addi	a1,a1,1638 # 66666666 <absimm+0x21374137>
     b8c:	00b50633          	add	a2,a0,a1
     b90:	16c0ac23          	sw	a2,376(ra)

00000b94 <inst_128>:
     b94:	55555537          	lui	a0,0x55555
     b98:	55550513          	addi	a0,a0,1365 # 55555555 <absimm+0x10263026>
     b9c:	ffff55b7          	lui	a1,0xffff5
     ba0:	afc58593          	addi	a1,a1,-1284 # ffff4afc <immx+0x452e702c>
     ba4:	00b50633          	add	a2,a0,a1
     ba8:	16c0ae23          	sw	a2,380(ra)

00000bac <inst_129>:
     bac:	55555537          	lui	a0,0x55555
     bb0:	55550513          	addi	a0,a0,1365 # 55555555 <absimm+0x10263026>
     bb4:	0000b5b7          	lui	a1,0xb
     bb8:	50458593          	addi	a1,a1,1284 # b504 <fromhost+0x5904>
     bbc:	00b50633          	add	a2,a0,a1
     bc0:	18c0a023          	sw	a2,384(ra)

00000bc4 <inst_130>:
     bc4:	55555537          	lui	a0,0x55555
     bc8:	55550513          	addi	a0,a0,1365 # 55555555 <absimm+0x10263026>
     bcc:	00200593          	li	a1,2
     bd0:	00b50633          	add	a2,a0,a1
     bd4:	18c0a223          	sw	a2,388(ra)

00000bd8 <inst_131>:
     bd8:	55555537          	lui	a0,0x55555
     bdc:	55550513          	addi	a0,a0,1365 # 55555555 <absimm+0x10263026>
     be0:	555555b7          	lui	a1,0x55555
     be4:	55458593          	addi	a1,a1,1364 # 55555554 <absimm+0x10263025>
     be8:	00b50633          	add	a2,a0,a1
     bec:	18c0a423          	sw	a2,392(ra)

00000bf0 <inst_132>:
     bf0:	55555537          	lui	a0,0x55555
     bf4:	55550513          	addi	a0,a0,1365 # 55555555 <absimm+0x10263026>
     bf8:	00000593          	li	a1,0
     bfc:	00b50633          	add	a2,a0,a1
     c00:	18c0a623          	sw	a2,396(ra)

00000c04 <inst_133>:
     c04:	55555537          	lui	a0,0x55555
     c08:	55550513          	addi	a0,a0,1365 # 55555555 <absimm+0x10263026>
     c0c:	00400593          	li	a1,4
     c10:	00b50633          	add	a2,a0,a1
     c14:	18c0a823          	sw	a2,400(ra)

00000c18 <inst_134>:
     c18:	55555537          	lui	a0,0x55555
     c1c:	55550513          	addi	a0,a0,1365 # 55555555 <absimm+0x10263026>
     c20:	333335b7          	lui	a1,0x33333
     c24:	33258593          	addi	a1,a1,818 # 33333332 <fromhost+0x3332d732>
     c28:	00b50633          	add	a2,a0,a1
     c2c:	18c0aa23          	sw	a2,404(ra)

00000c30 <inst_135>:
     c30:	55555537          	lui	a0,0x55555
     c34:	55550513          	addi	a0,a0,1365 # 55555555 <absimm+0x10263026>
     c38:	666665b7          	lui	a1,0x66666
     c3c:	66558593          	addi	a1,a1,1637 # 66666665 <absimm+0x21374136>
     c40:	00b50633          	add	a2,a0,a1
     c44:	18c0ac23          	sw	a2,408(ra)

00000c48 <inst_136>:
     c48:	55555537          	lui	a0,0x55555
     c4c:	55550513          	addi	a0,a0,1365 # 55555555 <absimm+0x10263026>
     c50:	0000b5b7          	lui	a1,0xb
     c54:	50358593          	addi	a1,a1,1283 # b503 <fromhost+0x5903>
     c58:	00b50633          	add	a2,a0,a1
     c5c:	18c0ae23          	sw	a2,412(ra)

00000c60 <inst_137>:
     c60:	55555537          	lui	a0,0x55555
     c64:	55550513          	addi	a0,a0,1365 # 55555555 <absimm+0x10263026>
     c68:	555555b7          	lui	a1,0x55555
     c6c:	55658593          	addi	a1,a1,1366 # 55555556 <absimm+0x10263027>
     c70:	00b50633          	add	a2,a0,a1
     c74:	1ac0a023          	sw	a2,416(ra)

00000c78 <inst_138>:
     c78:	55555537          	lui	a0,0x55555
     c7c:	55550513          	addi	a0,a0,1365 # 55555555 <absimm+0x10263026>
     c80:	aaaab5b7          	lui	a1,0xaaaab
     c84:	aab58593          	addi	a1,a1,-1365 # aaaaaaab <absimm+0x657b857c>
     c88:	00b50633          	add	a2,a0,a1
     c8c:	1ac0a223          	sw	a2,420(ra)

00000c90 <inst_139>:
     c90:	55555537          	lui	a0,0x55555
     c94:	55550513          	addi	a0,a0,1365 # 55555555 <absimm+0x10263026>
     c98:	00600593          	li	a1,6
     c9c:	00b50633          	add	a2,a0,a1
     ca0:	1ac0a423          	sw	a2,424(ra)

00000ca4 <inst_140>:
     ca4:	55555537          	lui	a0,0x55555
     ca8:	55550513          	addi	a0,a0,1365 # 55555555 <absimm+0x10263026>
     cac:	333335b7          	lui	a1,0x33333
     cb0:	33458593          	addi	a1,a1,820 # 33333334 <fromhost+0x3332d734>
     cb4:	00b50633          	add	a2,a0,a1
     cb8:	1ac0a623          	sw	a2,428(ra)

00000cbc <inst_141>:
     cbc:	55555537          	lui	a0,0x55555
     cc0:	55550513          	addi	a0,a0,1365 # 55555555 <absimm+0x10263026>
     cc4:	666665b7          	lui	a1,0x66666
     cc8:	66758593          	addi	a1,a1,1639 # 66666667 <absimm+0x21374138>
     ccc:	00b50633          	add	a2,a0,a1
     cd0:	1ac0a823          	sw	a2,432(ra)

00000cd4 <inst_142>:
     cd4:	55555537          	lui	a0,0x55555
     cd8:	55550513          	addi	a0,a0,1365 # 55555555 <absimm+0x10263026>
     cdc:	ffff55b7          	lui	a1,0xffff5
     ce0:	afd58593          	addi	a1,a1,-1283 # ffff4afd <immx+0x452e702d>
     ce4:	00b50633          	add	a2,a0,a1
     ce8:	1ac0aa23          	sw	a2,436(ra)

00000cec <inst_143>:
     cec:	55555537          	lui	a0,0x55555
     cf0:	55550513          	addi	a0,a0,1365 # 55555555 <absimm+0x10263026>
     cf4:	0000b5b7          	lui	a1,0xb
     cf8:	50558593          	addi	a1,a1,1285 # b505 <fromhost+0x5905>
     cfc:	00b50633          	add	a2,a0,a1
     d00:	1ac0ac23          	sw	a2,440(ra)

00000d04 <inst_144>:
     d04:	aaaab537          	lui	a0,0xaaaab
     d08:	aaa50513          	addi	a0,a0,-1366 # aaaaaaaa <absimm+0x657b857b>
     d0c:	00300593          	li	a1,3
     d10:	00b50633          	add	a2,a0,a1
     d14:	1ac0ae23          	sw	a2,444(ra)

00000d18 <inst_145>:
     d18:	aaaab537          	lui	a0,0xaaaab
     d1c:	aaa50513          	addi	a0,a0,-1366 # aaaaaaaa <absimm+0x657b857b>
     d20:	555555b7          	lui	a1,0x55555
     d24:	55558593          	addi	a1,a1,1365 # 55555555 <absimm+0x10263026>
     d28:	00b50633          	add	a2,a0,a1
     d2c:	1cc0a023          	sw	a2,448(ra)

00000d30 <inst_146>:
     d30:	aaaab537          	lui	a0,0xaaaab
     d34:	aaa50513          	addi	a0,a0,-1366 # aaaaaaaa <absimm+0x657b857b>
     d38:	aaaab5b7          	lui	a1,0xaaaab
     d3c:	aaa58593          	addi	a1,a1,-1366 # aaaaaaaa <absimm+0x657b857b>
     d40:	00b50633          	add	a2,a0,a1
     d44:	1cc0a223          	sw	a2,452(ra)

00000d48 <inst_147>:
     d48:	aaaab537          	lui	a0,0xaaaab
     d4c:	aaa50513          	addi	a0,a0,-1366 # aaaaaaaa <absimm+0x657b857b>
     d50:	00500593          	li	a1,5
     d54:	00b50633          	add	a2,a0,a1
     d58:	1cc0a423          	sw	a2,456(ra)

00000d5c <inst_148>:
     d5c:	aaaab537          	lui	a0,0xaaaab
     d60:	aaa50513          	addi	a0,a0,-1366 # aaaaaaaa <absimm+0x657b857b>
     d64:	333335b7          	lui	a1,0x33333
     d68:	33358593          	addi	a1,a1,819 # 33333333 <fromhost+0x3332d733>
     d6c:	00b50633          	add	a2,a0,a1
     d70:	1cc0a623          	sw	a2,460(ra)

00000d74 <inst_149>:
     d74:	aaaab537          	lui	a0,0xaaaab
     d78:	aaa50513          	addi	a0,a0,-1366 # aaaaaaaa <absimm+0x657b857b>
     d7c:	666665b7          	lui	a1,0x66666
     d80:	66658593          	addi	a1,a1,1638 # 66666666 <absimm+0x21374137>
     d84:	00b50633          	add	a2,a0,a1
     d88:	1cc0a823          	sw	a2,464(ra)

00000d8c <inst_150>:
     d8c:	aaaab537          	lui	a0,0xaaaab
     d90:	aaa50513          	addi	a0,a0,-1366 # aaaaaaaa <absimm+0x657b857b>
     d94:	ffff55b7          	lui	a1,0xffff5
     d98:	afc58593          	addi	a1,a1,-1284 # ffff4afc <immx+0x452e702c>
     d9c:	00b50633          	add	a2,a0,a1
     da0:	1cc0aa23          	sw	a2,468(ra)

00000da4 <inst_151>:
     da4:	aaaab537          	lui	a0,0xaaaab
     da8:	aaa50513          	addi	a0,a0,-1366 # aaaaaaaa <absimm+0x657b857b>
     dac:	0000b5b7          	lui	a1,0xb
     db0:	50458593          	addi	a1,a1,1284 # b504 <fromhost+0x5904>
     db4:	00b50633          	add	a2,a0,a1
     db8:	1cc0ac23          	sw	a2,472(ra)

00000dbc <inst_152>:
     dbc:	aaaab537          	lui	a0,0xaaaab
     dc0:	aaa50513          	addi	a0,a0,-1366 # aaaaaaaa <absimm+0x657b857b>
     dc4:	00200593          	li	a1,2
     dc8:	00b50633          	add	a2,a0,a1
     dcc:	1cc0ae23          	sw	a2,476(ra)

00000dd0 <inst_153>:
     dd0:	aaaab537          	lui	a0,0xaaaab
     dd4:	aaa50513          	addi	a0,a0,-1366 # aaaaaaaa <absimm+0x657b857b>
     dd8:	555555b7          	lui	a1,0x55555
     ddc:	55458593          	addi	a1,a1,1364 # 55555554 <absimm+0x10263025>
     de0:	00b50633          	add	a2,a0,a1
     de4:	1ec0a023          	sw	a2,480(ra)

00000de8 <inst_154>:
     de8:	aaaab537          	lui	a0,0xaaaab
     dec:	aaa50513          	addi	a0,a0,-1366 # aaaaaaaa <absimm+0x657b857b>
     df0:	00000593          	li	a1,0
     df4:	00b50633          	add	a2,a0,a1
     df8:	1ec0a223          	sw	a2,484(ra)

00000dfc <inst_155>:
     dfc:	aaaab537          	lui	a0,0xaaaab
     e00:	aaa50513          	addi	a0,a0,-1366 # aaaaaaaa <absimm+0x657b857b>
     e04:	00400593          	li	a1,4
     e08:	00b50633          	add	a2,a0,a1
     e0c:	1ec0a423          	sw	a2,488(ra)

00000e10 <inst_156>:
     e10:	aaaab537          	lui	a0,0xaaaab
     e14:	aaa50513          	addi	a0,a0,-1366 # aaaaaaaa <absimm+0x657b857b>
     e18:	333335b7          	lui	a1,0x33333
     e1c:	33258593          	addi	a1,a1,818 # 33333332 <fromhost+0x3332d732>
     e20:	00b50633          	add	a2,a0,a1
     e24:	1ec0a623          	sw	a2,492(ra)

00000e28 <inst_157>:
     e28:	aaaab537          	lui	a0,0xaaaab
     e2c:	aaa50513          	addi	a0,a0,-1366 # aaaaaaaa <absimm+0x657b857b>
     e30:	666665b7          	lui	a1,0x66666
     e34:	66558593          	addi	a1,a1,1637 # 66666665 <absimm+0x21374136>
     e38:	00b50633          	add	a2,a0,a1
     e3c:	1ec0a823          	sw	a2,496(ra)

00000e40 <inst_158>:
     e40:	aaaab537          	lui	a0,0xaaaab
     e44:	aaa50513          	addi	a0,a0,-1366 # aaaaaaaa <absimm+0x657b857b>
     e48:	0000b5b7          	lui	a1,0xb
     e4c:	50358593          	addi	a1,a1,1283 # b503 <fromhost+0x5903>
     e50:	00b50633          	add	a2,a0,a1
     e54:	1ec0aa23          	sw	a2,500(ra)

00000e58 <inst_159>:
     e58:	aaaab537          	lui	a0,0xaaaab
     e5c:	aaa50513          	addi	a0,a0,-1366 # aaaaaaaa <absimm+0x657b857b>
     e60:	555555b7          	lui	a1,0x55555
     e64:	55658593          	addi	a1,a1,1366 # 55555556 <absimm+0x10263027>
     e68:	00b50633          	add	a2,a0,a1
     e6c:	1ec0ac23          	sw	a2,504(ra)

00000e70 <inst_160>:
     e70:	aaaab537          	lui	a0,0xaaaab
     e74:	aaa50513          	addi	a0,a0,-1366 # aaaaaaaa <absimm+0x657b857b>
     e78:	aaaab5b7          	lui	a1,0xaaaab
     e7c:	aab58593          	addi	a1,a1,-1365 # aaaaaaab <absimm+0x657b857c>
     e80:	00b50633          	add	a2,a0,a1
     e84:	1ec0ae23          	sw	a2,508(ra)

00000e88 <inst_161>:
     e88:	aaaab537          	lui	a0,0xaaaab
     e8c:	aaa50513          	addi	a0,a0,-1366 # aaaaaaaa <absimm+0x657b857b>
     e90:	00600593          	li	a1,6
     e94:	00b50633          	add	a2,a0,a1
     e98:	20c0a023          	sw	a2,512(ra)

00000e9c <inst_162>:
     e9c:	aaaab537          	lui	a0,0xaaaab
     ea0:	aaa50513          	addi	a0,a0,-1366 # aaaaaaaa <absimm+0x657b857b>
     ea4:	333335b7          	lui	a1,0x33333
     ea8:	33458593          	addi	a1,a1,820 # 33333334 <fromhost+0x3332d734>
     eac:	00b50633          	add	a2,a0,a1
     eb0:	20c0a223          	sw	a2,516(ra)

00000eb4 <inst_163>:
     eb4:	aaaab537          	lui	a0,0xaaaab
     eb8:	aaa50513          	addi	a0,a0,-1366 # aaaaaaaa <absimm+0x657b857b>
     ebc:	666665b7          	lui	a1,0x66666
     ec0:	66758593          	addi	a1,a1,1639 # 66666667 <absimm+0x21374138>
     ec4:	00b50633          	add	a2,a0,a1
     ec8:	20c0a423          	sw	a2,520(ra)

00000ecc <inst_164>:
     ecc:	aaaab537          	lui	a0,0xaaaab
     ed0:	aaa50513          	addi	a0,a0,-1366 # aaaaaaaa <absimm+0x657b857b>
     ed4:	ffff55b7          	lui	a1,0xffff5
     ed8:	afd58593          	addi	a1,a1,-1283 # ffff4afd <immx+0x452e702d>
     edc:	00b50633          	add	a2,a0,a1
     ee0:	20c0a623          	sw	a2,524(ra)

00000ee4 <inst_165>:
     ee4:	aaaab537          	lui	a0,0xaaaab
     ee8:	aaa50513          	addi	a0,a0,-1366 # aaaaaaaa <absimm+0x657b857b>
     eec:	0000b5b7          	lui	a1,0xb
     ef0:	50558593          	addi	a1,a1,1285 # b505 <fromhost+0x5905>
     ef4:	00b50633          	add	a2,a0,a1
     ef8:	20c0a823          	sw	a2,528(ra)

00000efc <inst_166>:
     efc:	00500513          	li	a0,5
     f00:	00300593          	li	a1,3
     f04:	00b50633          	add	a2,a0,a1
     f08:	20c0aa23          	sw	a2,532(ra)

00000f0c <inst_167>:
     f0c:	00500513          	li	a0,5
     f10:	555555b7          	lui	a1,0x55555
     f14:	55558593          	addi	a1,a1,1365 # 55555555 <absimm+0x10263026>
     f18:	00b50633          	add	a2,a0,a1
     f1c:	20c0ac23          	sw	a2,536(ra)

00000f20 <inst_168>:
     f20:	00500513          	li	a0,5
     f24:	aaaab5b7          	lui	a1,0xaaaab
     f28:	aaa58593          	addi	a1,a1,-1366 # aaaaaaaa <absimm+0x657b857b>
     f2c:	00b50633          	add	a2,a0,a1
     f30:	20c0ae23          	sw	a2,540(ra)

00000f34 <inst_169>:
     f34:	00500513          	li	a0,5
     f38:	00500593          	li	a1,5
     f3c:	00b50633          	add	a2,a0,a1
     f40:	22c0a023          	sw	a2,544(ra)

00000f44 <inst_170>:
     f44:	00500513          	li	a0,5
     f48:	333335b7          	lui	a1,0x33333
     f4c:	33358593          	addi	a1,a1,819 # 33333333 <fromhost+0x3332d733>
     f50:	00b50633          	add	a2,a0,a1
     f54:	22c0a223          	sw	a2,548(ra)

00000f58 <inst_171>:
     f58:	00500513          	li	a0,5
     f5c:	666665b7          	lui	a1,0x66666
     f60:	66658593          	addi	a1,a1,1638 # 66666666 <absimm+0x21374137>
     f64:	00b50633          	add	a2,a0,a1
     f68:	22c0a423          	sw	a2,552(ra)

00000f6c <inst_172>:
     f6c:	00500513          	li	a0,5
     f70:	ffff55b7          	lui	a1,0xffff5
     f74:	afc58593          	addi	a1,a1,-1284 # ffff4afc <immx+0x452e702c>
     f78:	00b50633          	add	a2,a0,a1
     f7c:	22c0a623          	sw	a2,556(ra)

00000f80 <inst_173>:
     f80:	00500513          	li	a0,5
     f84:	0000b5b7          	lui	a1,0xb
     f88:	50458593          	addi	a1,a1,1284 # b504 <fromhost+0x5904>
     f8c:	00b50633          	add	a2,a0,a1
     f90:	22c0a823          	sw	a2,560(ra)

00000f94 <inst_174>:
     f94:	00500513          	li	a0,5
     f98:	00200593          	li	a1,2
     f9c:	00b50633          	add	a2,a0,a1
     fa0:	22c0aa23          	sw	a2,564(ra)

00000fa4 <inst_175>:
     fa4:	00500513          	li	a0,5
     fa8:	555555b7          	lui	a1,0x55555
     fac:	55458593          	addi	a1,a1,1364 # 55555554 <absimm+0x10263025>
     fb0:	00b50633          	add	a2,a0,a1
     fb4:	22c0ac23          	sw	a2,568(ra)

00000fb8 <inst_176>:
     fb8:	00500513          	li	a0,5
     fbc:	00000593          	li	a1,0
     fc0:	00b50633          	add	a2,a0,a1
     fc4:	22c0ae23          	sw	a2,572(ra)

00000fc8 <inst_177>:
     fc8:	00500513          	li	a0,5
     fcc:	00400593          	li	a1,4
     fd0:	00b50633          	add	a2,a0,a1
     fd4:	24c0a023          	sw	a2,576(ra)

00000fd8 <inst_178>:
     fd8:	00500513          	li	a0,5
     fdc:	333335b7          	lui	a1,0x33333
     fe0:	33258593          	addi	a1,a1,818 # 33333332 <fromhost+0x3332d732>
     fe4:	00b50633          	add	a2,a0,a1
     fe8:	24c0a223          	sw	a2,580(ra)

00000fec <inst_179>:
     fec:	00500513          	li	a0,5
     ff0:	666665b7          	lui	a1,0x66666
     ff4:	66558593          	addi	a1,a1,1637 # 66666665 <absimm+0x21374136>
     ff8:	00b50633          	add	a2,a0,a1
     ffc:	24c0a423          	sw	a2,584(ra)

00001000 <inst_180>:
    1000:	00500513          	li	a0,5
    1004:	0000b5b7          	lui	a1,0xb
    1008:	50358593          	addi	a1,a1,1283 # b503 <fromhost+0x5903>
    100c:	00b50633          	add	a2,a0,a1
    1010:	24c0a623          	sw	a2,588(ra)

00001014 <inst_181>:
    1014:	00500513          	li	a0,5
    1018:	555555b7          	lui	a1,0x55555
    101c:	55658593          	addi	a1,a1,1366 # 55555556 <absimm+0x10263027>
    1020:	00b50633          	add	a2,a0,a1
    1024:	24c0a823          	sw	a2,592(ra)

00001028 <inst_182>:
    1028:	00500513          	li	a0,5
    102c:	aaaab5b7          	lui	a1,0xaaaab
    1030:	aab58593          	addi	a1,a1,-1365 # aaaaaaab <absimm+0x657b857c>
    1034:	00b50633          	add	a2,a0,a1
    1038:	24c0aa23          	sw	a2,596(ra)

0000103c <inst_183>:
    103c:	00500513          	li	a0,5
    1040:	00600593          	li	a1,6
    1044:	00b50633          	add	a2,a0,a1
    1048:	24c0ac23          	sw	a2,600(ra)

0000104c <inst_184>:
    104c:	00500513          	li	a0,5
    1050:	333335b7          	lui	a1,0x33333
    1054:	33458593          	addi	a1,a1,820 # 33333334 <fromhost+0x3332d734>
    1058:	00b50633          	add	a2,a0,a1
    105c:	24c0ae23          	sw	a2,604(ra)

00001060 <inst_185>:
    1060:	00500513          	li	a0,5
    1064:	666665b7          	lui	a1,0x66666
    1068:	66758593          	addi	a1,a1,1639 # 66666667 <absimm+0x21374138>
    106c:	00b50633          	add	a2,a0,a1
    1070:	26c0a023          	sw	a2,608(ra)

00001074 <inst_186>:
    1074:	00500513          	li	a0,5
    1078:	ffff55b7          	lui	a1,0xffff5
    107c:	afd58593          	addi	a1,a1,-1283 # ffff4afd <immx+0x452e702d>
    1080:	00b50633          	add	a2,a0,a1
    1084:	26c0a223          	sw	a2,612(ra)

00001088 <inst_187>:
    1088:	00500513          	li	a0,5
    108c:	0000b5b7          	lui	a1,0xb
    1090:	50558593          	addi	a1,a1,1285 # b505 <fromhost+0x5905>
    1094:	00b50633          	add	a2,a0,a1
    1098:	26c0a423          	sw	a2,616(ra)

0000109c <inst_188>:
    109c:	33333537          	lui	a0,0x33333
    10a0:	33350513          	addi	a0,a0,819 # 33333333 <fromhost+0x3332d733>
    10a4:	00300593          	li	a1,3
    10a8:	00b50633          	add	a2,a0,a1
    10ac:	26c0a623          	sw	a2,620(ra)

000010b0 <inst_189>:
    10b0:	33333537          	lui	a0,0x33333
    10b4:	33350513          	addi	a0,a0,819 # 33333333 <fromhost+0x3332d733>
    10b8:	555555b7          	lui	a1,0x55555
    10bc:	55558593          	addi	a1,a1,1365 # 55555555 <absimm+0x10263026>
    10c0:	00b50633          	add	a2,a0,a1
    10c4:	26c0a823          	sw	a2,624(ra)

000010c8 <inst_190>:
    10c8:	33333537          	lui	a0,0x33333
    10cc:	33350513          	addi	a0,a0,819 # 33333333 <fromhost+0x3332d733>
    10d0:	aaaab5b7          	lui	a1,0xaaaab
    10d4:	aaa58593          	addi	a1,a1,-1366 # aaaaaaaa <absimm+0x657b857b>
    10d8:	00b50633          	add	a2,a0,a1
    10dc:	26c0aa23          	sw	a2,628(ra)

000010e0 <inst_191>:
    10e0:	33333537          	lui	a0,0x33333
    10e4:	33350513          	addi	a0,a0,819 # 33333333 <fromhost+0x3332d733>
    10e8:	00500593          	li	a1,5
    10ec:	00b50633          	add	a2,a0,a1
    10f0:	26c0ac23          	sw	a2,632(ra)

000010f4 <inst_192>:
    10f4:	33333537          	lui	a0,0x33333
    10f8:	33350513          	addi	a0,a0,819 # 33333333 <fromhost+0x3332d733>
    10fc:	333335b7          	lui	a1,0x33333
    1100:	33358593          	addi	a1,a1,819 # 33333333 <fromhost+0x3332d733>
    1104:	00b50633          	add	a2,a0,a1
    1108:	26c0ae23          	sw	a2,636(ra)

0000110c <inst_193>:
    110c:	33333537          	lui	a0,0x33333
    1110:	33350513          	addi	a0,a0,819 # 33333333 <fromhost+0x3332d733>
    1114:	666665b7          	lui	a1,0x66666
    1118:	66658593          	addi	a1,a1,1638 # 66666666 <absimm+0x21374137>
    111c:	00b50633          	add	a2,a0,a1
    1120:	28c0a023          	sw	a2,640(ra)

00001124 <inst_194>:
    1124:	33333537          	lui	a0,0x33333
    1128:	33350513          	addi	a0,a0,819 # 33333333 <fromhost+0x3332d733>
    112c:	ffff55b7          	lui	a1,0xffff5
    1130:	afc58593          	addi	a1,a1,-1284 # ffff4afc <immx+0x452e702c>
    1134:	00b50633          	add	a2,a0,a1
    1138:	28c0a223          	sw	a2,644(ra)

0000113c <inst_195>:
    113c:	33333537          	lui	a0,0x33333
    1140:	33350513          	addi	a0,a0,819 # 33333333 <fromhost+0x3332d733>
    1144:	0000b5b7          	lui	a1,0xb
    1148:	50458593          	addi	a1,a1,1284 # b504 <fromhost+0x5904>
    114c:	00b50633          	add	a2,a0,a1
    1150:	28c0a423          	sw	a2,648(ra)

00001154 <inst_196>:
    1154:	33333537          	lui	a0,0x33333
    1158:	33350513          	addi	a0,a0,819 # 33333333 <fromhost+0x3332d733>
    115c:	00200593          	li	a1,2
    1160:	00b50633          	add	a2,a0,a1
    1164:	28c0a623          	sw	a2,652(ra)

00001168 <inst_197>:
    1168:	33333537          	lui	a0,0x33333
    116c:	33350513          	addi	a0,a0,819 # 33333333 <fromhost+0x3332d733>
    1170:	555555b7          	lui	a1,0x55555
    1174:	55458593          	addi	a1,a1,1364 # 55555554 <absimm+0x10263025>
    1178:	00b50633          	add	a2,a0,a1
    117c:	28c0a823          	sw	a2,656(ra)

00001180 <inst_198>:
    1180:	33333537          	lui	a0,0x33333
    1184:	33350513          	addi	a0,a0,819 # 33333333 <fromhost+0x3332d733>
    1188:	00000593          	li	a1,0
    118c:	00b50633          	add	a2,a0,a1
    1190:	28c0aa23          	sw	a2,660(ra)

00001194 <inst_199>:
    1194:	33333537          	lui	a0,0x33333
    1198:	33350513          	addi	a0,a0,819 # 33333333 <fromhost+0x3332d733>
    119c:	00400593          	li	a1,4
    11a0:	00b50633          	add	a2,a0,a1
    11a4:	28c0ac23          	sw	a2,664(ra)

000011a8 <inst_200>:
    11a8:	33333537          	lui	a0,0x33333
    11ac:	33350513          	addi	a0,a0,819 # 33333333 <fromhost+0x3332d733>
    11b0:	333335b7          	lui	a1,0x33333
    11b4:	33258593          	addi	a1,a1,818 # 33333332 <fromhost+0x3332d732>
    11b8:	00b50633          	add	a2,a0,a1
    11bc:	28c0ae23          	sw	a2,668(ra)

000011c0 <inst_201>:
    11c0:	33333537          	lui	a0,0x33333
    11c4:	33350513          	addi	a0,a0,819 # 33333333 <fromhost+0x3332d733>
    11c8:	666665b7          	lui	a1,0x66666
    11cc:	66558593          	addi	a1,a1,1637 # 66666665 <absimm+0x21374136>
    11d0:	00b50633          	add	a2,a0,a1
    11d4:	2ac0a023          	sw	a2,672(ra)

000011d8 <inst_202>:
    11d8:	33333537          	lui	a0,0x33333
    11dc:	33350513          	addi	a0,a0,819 # 33333333 <fromhost+0x3332d733>
    11e0:	0000b5b7          	lui	a1,0xb
    11e4:	50358593          	addi	a1,a1,1283 # b503 <fromhost+0x5903>
    11e8:	00b50633          	add	a2,a0,a1
    11ec:	2ac0a223          	sw	a2,676(ra)

000011f0 <inst_203>:
    11f0:	33333537          	lui	a0,0x33333
    11f4:	33350513          	addi	a0,a0,819 # 33333333 <fromhost+0x3332d733>
    11f8:	555555b7          	lui	a1,0x55555
    11fc:	55658593          	addi	a1,a1,1366 # 55555556 <absimm+0x10263027>
    1200:	00b50633          	add	a2,a0,a1
    1204:	2ac0a423          	sw	a2,680(ra)

00001208 <inst_204>:
    1208:	33333537          	lui	a0,0x33333
    120c:	33350513          	addi	a0,a0,819 # 33333333 <fromhost+0x3332d733>
    1210:	aaaab5b7          	lui	a1,0xaaaab
    1214:	aab58593          	addi	a1,a1,-1365 # aaaaaaab <absimm+0x657b857c>
    1218:	00b50633          	add	a2,a0,a1
    121c:	2ac0a623          	sw	a2,684(ra)

00001220 <inst_205>:
    1220:	33333537          	lui	a0,0x33333
    1224:	33350513          	addi	a0,a0,819 # 33333333 <fromhost+0x3332d733>
    1228:	00600593          	li	a1,6
    122c:	00b50633          	add	a2,a0,a1
    1230:	2ac0a823          	sw	a2,688(ra)

00001234 <inst_206>:
    1234:	33333537          	lui	a0,0x33333
    1238:	33350513          	addi	a0,a0,819 # 33333333 <fromhost+0x3332d733>
    123c:	333335b7          	lui	a1,0x33333
    1240:	33458593          	addi	a1,a1,820 # 33333334 <fromhost+0x3332d734>
    1244:	00b50633          	add	a2,a0,a1
    1248:	2ac0aa23          	sw	a2,692(ra)

0000124c <inst_207>:
    124c:	33333537          	lui	a0,0x33333
    1250:	33350513          	addi	a0,a0,819 # 33333333 <fromhost+0x3332d733>
    1254:	666665b7          	lui	a1,0x66666
    1258:	66758593          	addi	a1,a1,1639 # 66666667 <absimm+0x21374138>
    125c:	00b50633          	add	a2,a0,a1
    1260:	2ac0ac23          	sw	a2,696(ra)

00001264 <inst_208>:
    1264:	33333537          	lui	a0,0x33333
    1268:	33350513          	addi	a0,a0,819 # 33333333 <fromhost+0x3332d733>
    126c:	ffff55b7          	lui	a1,0xffff5
    1270:	afd58593          	addi	a1,a1,-1283 # ffff4afd <immx+0x452e702d>
    1274:	00b50633          	add	a2,a0,a1
    1278:	2ac0ae23          	sw	a2,700(ra)

0000127c <inst_209>:
    127c:	33333537          	lui	a0,0x33333
    1280:	33350513          	addi	a0,a0,819 # 33333333 <fromhost+0x3332d733>
    1284:	0000b5b7          	lui	a1,0xb
    1288:	50558593          	addi	a1,a1,1285 # b505 <fromhost+0x5905>
    128c:	00b50633          	add	a2,a0,a1
    1290:	2cc0a023          	sw	a2,704(ra)

00001294 <inst_210>:
    1294:	66666537          	lui	a0,0x66666
    1298:	66650513          	addi	a0,a0,1638 # 66666666 <absimm+0x21374137>
    129c:	00300593          	li	a1,3
    12a0:	00b50633          	add	a2,a0,a1
    12a4:	2cc0a223          	sw	a2,708(ra)

000012a8 <inst_211>:
    12a8:	66666537          	lui	a0,0x66666
    12ac:	66650513          	addi	a0,a0,1638 # 66666666 <absimm+0x21374137>
    12b0:	555555b7          	lui	a1,0x55555
    12b4:	55558593          	addi	a1,a1,1365 # 55555555 <absimm+0x10263026>
    12b8:	00b50633          	add	a2,a0,a1
    12bc:	2cc0a423          	sw	a2,712(ra)

000012c0 <inst_212>:
    12c0:	66666537          	lui	a0,0x66666
    12c4:	66650513          	addi	a0,a0,1638 # 66666666 <absimm+0x21374137>
    12c8:	aaaab5b7          	lui	a1,0xaaaab
    12cc:	aaa58593          	addi	a1,a1,-1366 # aaaaaaaa <absimm+0x657b857b>
    12d0:	00b50633          	add	a2,a0,a1
    12d4:	2cc0a623          	sw	a2,716(ra)

000012d8 <inst_213>:
    12d8:	66666537          	lui	a0,0x66666
    12dc:	66650513          	addi	a0,a0,1638 # 66666666 <absimm+0x21374137>
    12e0:	00500593          	li	a1,5
    12e4:	00b50633          	add	a2,a0,a1
    12e8:	2cc0a823          	sw	a2,720(ra)

000012ec <inst_214>:
    12ec:	66666537          	lui	a0,0x66666
    12f0:	66650513          	addi	a0,a0,1638 # 66666666 <absimm+0x21374137>
    12f4:	333335b7          	lui	a1,0x33333
    12f8:	33358593          	addi	a1,a1,819 # 33333333 <fromhost+0x3332d733>
    12fc:	00b50633          	add	a2,a0,a1
    1300:	2cc0aa23          	sw	a2,724(ra)

00001304 <inst_215>:
    1304:	66666537          	lui	a0,0x66666
    1308:	66650513          	addi	a0,a0,1638 # 66666666 <absimm+0x21374137>
    130c:	666665b7          	lui	a1,0x66666
    1310:	66658593          	addi	a1,a1,1638 # 66666666 <absimm+0x21374137>
    1314:	00b50633          	add	a2,a0,a1
    1318:	2cc0ac23          	sw	a2,728(ra)

0000131c <inst_216>:
    131c:	66666537          	lui	a0,0x66666
    1320:	66650513          	addi	a0,a0,1638 # 66666666 <absimm+0x21374137>
    1324:	ffff55b7          	lui	a1,0xffff5
    1328:	afc58593          	addi	a1,a1,-1284 # ffff4afc <immx+0x452e702c>
    132c:	00b50633          	add	a2,a0,a1
    1330:	2cc0ae23          	sw	a2,732(ra)

00001334 <inst_217>:
    1334:	66666537          	lui	a0,0x66666
    1338:	66650513          	addi	a0,a0,1638 # 66666666 <absimm+0x21374137>
    133c:	0000b5b7          	lui	a1,0xb
    1340:	50458593          	addi	a1,a1,1284 # b504 <fromhost+0x5904>
    1344:	00b50633          	add	a2,a0,a1
    1348:	2ec0a023          	sw	a2,736(ra)

0000134c <inst_218>:
    134c:	66666537          	lui	a0,0x66666
    1350:	66650513          	addi	a0,a0,1638 # 66666666 <absimm+0x21374137>
    1354:	00200593          	li	a1,2
    1358:	00b50633          	add	a2,a0,a1
    135c:	2ec0a223          	sw	a2,740(ra)

00001360 <inst_219>:
    1360:	66666537          	lui	a0,0x66666
    1364:	66650513          	addi	a0,a0,1638 # 66666666 <absimm+0x21374137>
    1368:	555555b7          	lui	a1,0x55555
    136c:	55458593          	addi	a1,a1,1364 # 55555554 <absimm+0x10263025>
    1370:	00b50633          	add	a2,a0,a1
    1374:	2ec0a423          	sw	a2,744(ra)

00001378 <inst_220>:
    1378:	66666537          	lui	a0,0x66666
    137c:	66650513          	addi	a0,a0,1638 # 66666666 <absimm+0x21374137>
    1380:	00000593          	li	a1,0
    1384:	00b50633          	add	a2,a0,a1
    1388:	2ec0a623          	sw	a2,748(ra)

0000138c <inst_221>:
    138c:	66666537          	lui	a0,0x66666
    1390:	66650513          	addi	a0,a0,1638 # 66666666 <absimm+0x21374137>
    1394:	00400593          	li	a1,4
    1398:	00b50633          	add	a2,a0,a1
    139c:	2ec0a823          	sw	a2,752(ra)

000013a0 <inst_222>:
    13a0:	66666537          	lui	a0,0x66666
    13a4:	66650513          	addi	a0,a0,1638 # 66666666 <absimm+0x21374137>
    13a8:	333335b7          	lui	a1,0x33333
    13ac:	33258593          	addi	a1,a1,818 # 33333332 <fromhost+0x3332d732>
    13b0:	00b50633          	add	a2,a0,a1
    13b4:	2ec0aa23          	sw	a2,756(ra)

000013b8 <inst_223>:
    13b8:	66666537          	lui	a0,0x66666
    13bc:	66650513          	addi	a0,a0,1638 # 66666666 <absimm+0x21374137>
    13c0:	666665b7          	lui	a1,0x66666
    13c4:	66558593          	addi	a1,a1,1637 # 66666665 <absimm+0x21374136>
    13c8:	00b50633          	add	a2,a0,a1
    13cc:	2ec0ac23          	sw	a2,760(ra)

000013d0 <inst_224>:
    13d0:	66666537          	lui	a0,0x66666
    13d4:	66650513          	addi	a0,a0,1638 # 66666666 <absimm+0x21374137>
    13d8:	0000b5b7          	lui	a1,0xb
    13dc:	50358593          	addi	a1,a1,1283 # b503 <fromhost+0x5903>
    13e0:	00b50633          	add	a2,a0,a1
    13e4:	2ec0ae23          	sw	a2,764(ra)

000013e8 <inst_225>:
    13e8:	66666537          	lui	a0,0x66666
    13ec:	66650513          	addi	a0,a0,1638 # 66666666 <absimm+0x21374137>
    13f0:	555555b7          	lui	a1,0x55555
    13f4:	55658593          	addi	a1,a1,1366 # 55555556 <absimm+0x10263027>
    13f8:	00b50633          	add	a2,a0,a1
    13fc:	30c0a023          	sw	a2,768(ra)

00001400 <inst_226>:
    1400:	66666537          	lui	a0,0x66666
    1404:	66650513          	addi	a0,a0,1638 # 66666666 <absimm+0x21374137>
    1408:	aaaab5b7          	lui	a1,0xaaaab
    140c:	aab58593          	addi	a1,a1,-1365 # aaaaaaab <absimm+0x657b857c>
    1410:	00b50633          	add	a2,a0,a1
    1414:	30c0a223          	sw	a2,772(ra)

00001418 <inst_227>:
    1418:	66666537          	lui	a0,0x66666
    141c:	66650513          	addi	a0,a0,1638 # 66666666 <absimm+0x21374137>
    1420:	00600593          	li	a1,6
    1424:	00b50633          	add	a2,a0,a1
    1428:	30c0a423          	sw	a2,776(ra)

0000142c <inst_228>:
    142c:	66666537          	lui	a0,0x66666
    1430:	66650513          	addi	a0,a0,1638 # 66666666 <absimm+0x21374137>
    1434:	333335b7          	lui	a1,0x33333
    1438:	33458593          	addi	a1,a1,820 # 33333334 <fromhost+0x3332d734>
    143c:	00b50633          	add	a2,a0,a1
    1440:	30c0a623          	sw	a2,780(ra)

00001444 <inst_229>:
    1444:	66666537          	lui	a0,0x66666
    1448:	66650513          	addi	a0,a0,1638 # 66666666 <absimm+0x21374137>
    144c:	666665b7          	lui	a1,0x66666
    1450:	66758593          	addi	a1,a1,1639 # 66666667 <absimm+0x21374138>
    1454:	00b50633          	add	a2,a0,a1
    1458:	30c0a823          	sw	a2,784(ra)

0000145c <inst_230>:
    145c:	66666537          	lui	a0,0x66666
    1460:	66650513          	addi	a0,a0,1638 # 66666666 <absimm+0x21374137>
    1464:	ffff55b7          	lui	a1,0xffff5
    1468:	afd58593          	addi	a1,a1,-1283 # ffff4afd <immx+0x452e702d>
    146c:	00b50633          	add	a2,a0,a1
    1470:	30c0aa23          	sw	a2,788(ra)

00001474 <inst_231>:
    1474:	66666537          	lui	a0,0x66666
    1478:	66650513          	addi	a0,a0,1638 # 66666666 <absimm+0x21374137>
    147c:	0000b5b7          	lui	a1,0xb
    1480:	50558593          	addi	a1,a1,1285 # b505 <fromhost+0x5905>
    1484:	00b50633          	add	a2,a0,a1
    1488:	30c0ac23          	sw	a2,792(ra)

0000148c <inst_232>:
    148c:	ffff5537          	lui	a0,0xffff5
    1490:	afc50513          	addi	a0,a0,-1284 # ffff4afc <immx+0x452e702c>
    1494:	00300593          	li	a1,3
    1498:	00b50633          	add	a2,a0,a1
    149c:	30c0ae23          	sw	a2,796(ra)

000014a0 <inst_233>:
    14a0:	ffff5537          	lui	a0,0xffff5
    14a4:	afc50513          	addi	a0,a0,-1284 # ffff4afc <immx+0x452e702c>
    14a8:	555555b7          	lui	a1,0x55555
    14ac:	55558593          	addi	a1,a1,1365 # 55555555 <absimm+0x10263026>
    14b0:	00b50633          	add	a2,a0,a1
    14b4:	32c0a023          	sw	a2,800(ra)

000014b8 <inst_234>:
    14b8:	ffff5537          	lui	a0,0xffff5
    14bc:	afc50513          	addi	a0,a0,-1284 # ffff4afc <immx+0x452e702c>
    14c0:	aaaab5b7          	lui	a1,0xaaaab
    14c4:	aaa58593          	addi	a1,a1,-1366 # aaaaaaaa <absimm+0x657b857b>
    14c8:	00b50633          	add	a2,a0,a1
    14cc:	32c0a223          	sw	a2,804(ra)

000014d0 <inst_235>:
    14d0:	ffff5537          	lui	a0,0xffff5
    14d4:	afc50513          	addi	a0,a0,-1284 # ffff4afc <immx+0x452e702c>
    14d8:	00500593          	li	a1,5
    14dc:	00b50633          	add	a2,a0,a1
    14e0:	32c0a423          	sw	a2,808(ra)

000014e4 <inst_236>:
    14e4:	ffff5537          	lui	a0,0xffff5
    14e8:	afc50513          	addi	a0,a0,-1284 # ffff4afc <immx+0x452e702c>
    14ec:	333335b7          	lui	a1,0x33333
    14f0:	33358593          	addi	a1,a1,819 # 33333333 <fromhost+0x3332d733>
    14f4:	00b50633          	add	a2,a0,a1
    14f8:	32c0a623          	sw	a2,812(ra)

000014fc <inst_237>:
    14fc:	ffff5537          	lui	a0,0xffff5
    1500:	afc50513          	addi	a0,a0,-1284 # ffff4afc <immx+0x452e702c>
    1504:	666665b7          	lui	a1,0x66666
    1508:	66658593          	addi	a1,a1,1638 # 66666666 <absimm+0x21374137>
    150c:	00b50633          	add	a2,a0,a1
    1510:	32c0a823          	sw	a2,816(ra)

00001514 <inst_238>:
    1514:	ffff5537          	lui	a0,0xffff5
    1518:	afc50513          	addi	a0,a0,-1284 # ffff4afc <immx+0x452e702c>
    151c:	ffff55b7          	lui	a1,0xffff5
    1520:	afc58593          	addi	a1,a1,-1284 # ffff4afc <immx+0x452e702c>
    1524:	00b50633          	add	a2,a0,a1
    1528:	32c0aa23          	sw	a2,820(ra)

0000152c <inst_239>:
    152c:	ffff5537          	lui	a0,0xffff5
    1530:	afc50513          	addi	a0,a0,-1284 # ffff4afc <immx+0x452e702c>
    1534:	0000b5b7          	lui	a1,0xb
    1538:	50458593          	addi	a1,a1,1284 # b504 <fromhost+0x5904>
    153c:	00b50633          	add	a2,a0,a1
    1540:	32c0ac23          	sw	a2,824(ra)

00001544 <inst_240>:
    1544:	ffff5537          	lui	a0,0xffff5
    1548:	afc50513          	addi	a0,a0,-1284 # ffff4afc <immx+0x452e702c>
    154c:	00200593          	li	a1,2
    1550:	00b50633          	add	a2,a0,a1
    1554:	32c0ae23          	sw	a2,828(ra)

00001558 <inst_241>:
    1558:	ffff5537          	lui	a0,0xffff5
    155c:	afc50513          	addi	a0,a0,-1284 # ffff4afc <immx+0x452e702c>
    1560:	555555b7          	lui	a1,0x55555
    1564:	55458593          	addi	a1,a1,1364 # 55555554 <absimm+0x10263025>
    1568:	00b50633          	add	a2,a0,a1
    156c:	34c0a023          	sw	a2,832(ra)

00001570 <inst_242>:
    1570:	ffff5537          	lui	a0,0xffff5
    1574:	afc50513          	addi	a0,a0,-1284 # ffff4afc <immx+0x452e702c>
    1578:	00000593          	li	a1,0
    157c:	00b50633          	add	a2,a0,a1
    1580:	34c0a223          	sw	a2,836(ra)

00001584 <inst_243>:
    1584:	ffff5537          	lui	a0,0xffff5
    1588:	afc50513          	addi	a0,a0,-1284 # ffff4afc <immx+0x452e702c>
    158c:	00400593          	li	a1,4
    1590:	00b50633          	add	a2,a0,a1
    1594:	34c0a423          	sw	a2,840(ra)

00001598 <inst_244>:
    1598:	ffff5537          	lui	a0,0xffff5
    159c:	afc50513          	addi	a0,a0,-1284 # ffff4afc <immx+0x452e702c>
    15a0:	333335b7          	lui	a1,0x33333
    15a4:	33258593          	addi	a1,a1,818 # 33333332 <fromhost+0x3332d732>
    15a8:	00b50633          	add	a2,a0,a1
    15ac:	34c0a623          	sw	a2,844(ra)

000015b0 <inst_245>:
    15b0:	ffff5537          	lui	a0,0xffff5
    15b4:	afc50513          	addi	a0,a0,-1284 # ffff4afc <immx+0x452e702c>
    15b8:	666665b7          	lui	a1,0x66666
    15bc:	66558593          	addi	a1,a1,1637 # 66666665 <absimm+0x21374136>
    15c0:	00b50633          	add	a2,a0,a1
    15c4:	34c0a823          	sw	a2,848(ra)

000015c8 <inst_246>:
    15c8:	ffff5537          	lui	a0,0xffff5
    15cc:	afc50513          	addi	a0,a0,-1284 # ffff4afc <immx+0x452e702c>
    15d0:	0000b5b7          	lui	a1,0xb
    15d4:	50358593          	addi	a1,a1,1283 # b503 <fromhost+0x5903>
    15d8:	00b50633          	add	a2,a0,a1
    15dc:	34c0aa23          	sw	a2,852(ra)

000015e0 <inst_247>:
    15e0:	ffff5537          	lui	a0,0xffff5
    15e4:	afc50513          	addi	a0,a0,-1284 # ffff4afc <immx+0x452e702c>
    15e8:	555555b7          	lui	a1,0x55555
    15ec:	55658593          	addi	a1,a1,1366 # 55555556 <absimm+0x10263027>
    15f0:	00b50633          	add	a2,a0,a1
    15f4:	34c0ac23          	sw	a2,856(ra)

000015f8 <inst_248>:
    15f8:	ffff5537          	lui	a0,0xffff5
    15fc:	afc50513          	addi	a0,a0,-1284 # ffff4afc <immx+0x452e702c>
    1600:	aaaab5b7          	lui	a1,0xaaaab
    1604:	aab58593          	addi	a1,a1,-1365 # aaaaaaab <absimm+0x657b857c>
    1608:	00b50633          	add	a2,a0,a1
    160c:	34c0ae23          	sw	a2,860(ra)

00001610 <inst_249>:
    1610:	ffff5537          	lui	a0,0xffff5
    1614:	afc50513          	addi	a0,a0,-1284 # ffff4afc <immx+0x452e702c>
    1618:	00600593          	li	a1,6
    161c:	00b50633          	add	a2,a0,a1
    1620:	36c0a023          	sw	a2,864(ra)

00001624 <inst_250>:
    1624:	ffff5537          	lui	a0,0xffff5
    1628:	afc50513          	addi	a0,a0,-1284 # ffff4afc <immx+0x452e702c>
    162c:	333335b7          	lui	a1,0x33333
    1630:	33458593          	addi	a1,a1,820 # 33333334 <fromhost+0x3332d734>
    1634:	00b50633          	add	a2,a0,a1
    1638:	36c0a223          	sw	a2,868(ra)

0000163c <inst_251>:
    163c:	ffff5537          	lui	a0,0xffff5
    1640:	afc50513          	addi	a0,a0,-1284 # ffff4afc <immx+0x452e702c>
    1644:	666665b7          	lui	a1,0x66666
    1648:	66758593          	addi	a1,a1,1639 # 66666667 <absimm+0x21374138>
    164c:	00b50633          	add	a2,a0,a1
    1650:	36c0a423          	sw	a2,872(ra)

00001654 <inst_252>:
    1654:	ffff5537          	lui	a0,0xffff5
    1658:	afc50513          	addi	a0,a0,-1284 # ffff4afc <immx+0x452e702c>
    165c:	ffff55b7          	lui	a1,0xffff5
    1660:	afd58593          	addi	a1,a1,-1283 # ffff4afd <immx+0x452e702d>
    1664:	00b50633          	add	a2,a0,a1
    1668:	36c0a623          	sw	a2,876(ra)

0000166c <inst_253>:
    166c:	ffff5537          	lui	a0,0xffff5
    1670:	afc50513          	addi	a0,a0,-1284 # ffff4afc <immx+0x452e702c>
    1674:	0000b5b7          	lui	a1,0xb
    1678:	50558593          	addi	a1,a1,1285 # b505 <fromhost+0x5905>
    167c:	00b50633          	add	a2,a0,a1
    1680:	36c0a823          	sw	a2,880(ra)

00001684 <inst_254>:
    1684:	0000b537          	lui	a0,0xb
    1688:	50450513          	addi	a0,a0,1284 # b504 <fromhost+0x5904>
    168c:	00300593          	li	a1,3
    1690:	00b50633          	add	a2,a0,a1
    1694:	36c0aa23          	sw	a2,884(ra)

00001698 <inst_255>:
    1698:	0000b537          	lui	a0,0xb
    169c:	50450513          	addi	a0,a0,1284 # b504 <fromhost+0x5904>
    16a0:	555555b7          	lui	a1,0x55555
    16a4:	55558593          	addi	a1,a1,1365 # 55555555 <absimm+0x10263026>
    16a8:	00b50633          	add	a2,a0,a1
    16ac:	36c0ac23          	sw	a2,888(ra)

000016b0 <inst_256>:
    16b0:	0000b537          	lui	a0,0xb
    16b4:	50450513          	addi	a0,a0,1284 # b504 <fromhost+0x5904>
    16b8:	aaaab5b7          	lui	a1,0xaaaab
    16bc:	aaa58593          	addi	a1,a1,-1366 # aaaaaaaa <absimm+0x657b857b>
    16c0:	00b50633          	add	a2,a0,a1
    16c4:	36c0ae23          	sw	a2,892(ra)

000016c8 <inst_257>:
    16c8:	0000b537          	lui	a0,0xb
    16cc:	50450513          	addi	a0,a0,1284 # b504 <fromhost+0x5904>
    16d0:	00500593          	li	a1,5
    16d4:	00b50633          	add	a2,a0,a1
    16d8:	38c0a023          	sw	a2,896(ra)

000016dc <inst_258>:
    16dc:	0000b537          	lui	a0,0xb
    16e0:	50450513          	addi	a0,a0,1284 # b504 <fromhost+0x5904>
    16e4:	333335b7          	lui	a1,0x33333
    16e8:	33358593          	addi	a1,a1,819 # 33333333 <fromhost+0x3332d733>
    16ec:	00b50633          	add	a2,a0,a1
    16f0:	38c0a223          	sw	a2,900(ra)

000016f4 <inst_259>:
    16f4:	0000b537          	lui	a0,0xb
    16f8:	50450513          	addi	a0,a0,1284 # b504 <fromhost+0x5904>
    16fc:	666665b7          	lui	a1,0x66666
    1700:	66658593          	addi	a1,a1,1638 # 66666666 <absimm+0x21374137>
    1704:	00b50633          	add	a2,a0,a1
    1708:	38c0a423          	sw	a2,904(ra)

0000170c <inst_260>:
    170c:	0000b537          	lui	a0,0xb
    1710:	50450513          	addi	a0,a0,1284 # b504 <fromhost+0x5904>
    1714:	ffff55b7          	lui	a1,0xffff5
    1718:	afc58593          	addi	a1,a1,-1284 # ffff4afc <immx+0x452e702c>
    171c:	00b50633          	add	a2,a0,a1
    1720:	38c0a623          	sw	a2,908(ra)

00001724 <inst_261>:
    1724:	0000b537          	lui	a0,0xb
    1728:	50450513          	addi	a0,a0,1284 # b504 <fromhost+0x5904>
    172c:	0000b5b7          	lui	a1,0xb
    1730:	50458593          	addi	a1,a1,1284 # b504 <fromhost+0x5904>
    1734:	00b50633          	add	a2,a0,a1
    1738:	38c0a823          	sw	a2,912(ra)

0000173c <inst_262>:
    173c:	0000b537          	lui	a0,0xb
    1740:	50450513          	addi	a0,a0,1284 # b504 <fromhost+0x5904>
    1744:	00200593          	li	a1,2
    1748:	00b50633          	add	a2,a0,a1
    174c:	38c0aa23          	sw	a2,916(ra)

00001750 <inst_263>:
    1750:	0000b537          	lui	a0,0xb
    1754:	50450513          	addi	a0,a0,1284 # b504 <fromhost+0x5904>
    1758:	555555b7          	lui	a1,0x55555
    175c:	55458593          	addi	a1,a1,1364 # 55555554 <absimm+0x10263025>
    1760:	00b50633          	add	a2,a0,a1
    1764:	38c0ac23          	sw	a2,920(ra)

00001768 <inst_264>:
    1768:	0000b537          	lui	a0,0xb
    176c:	50450513          	addi	a0,a0,1284 # b504 <fromhost+0x5904>
    1770:	00000593          	li	a1,0
    1774:	00b50633          	add	a2,a0,a1
    1778:	38c0ae23          	sw	a2,924(ra)

0000177c <inst_265>:
    177c:	0000b537          	lui	a0,0xb
    1780:	50450513          	addi	a0,a0,1284 # b504 <fromhost+0x5904>
    1784:	00400593          	li	a1,4
    1788:	00b50633          	add	a2,a0,a1
    178c:	3ac0a023          	sw	a2,928(ra)

00001790 <inst_266>:
    1790:	0000b537          	lui	a0,0xb
    1794:	50450513          	addi	a0,a0,1284 # b504 <fromhost+0x5904>
    1798:	333335b7          	lui	a1,0x33333
    179c:	33258593          	addi	a1,a1,818 # 33333332 <fromhost+0x3332d732>
    17a0:	00b50633          	add	a2,a0,a1
    17a4:	3ac0a223          	sw	a2,932(ra)

000017a8 <inst_267>:
    17a8:	0000b537          	lui	a0,0xb
    17ac:	50450513          	addi	a0,a0,1284 # b504 <fromhost+0x5904>
    17b0:	666665b7          	lui	a1,0x66666
    17b4:	66558593          	addi	a1,a1,1637 # 66666665 <absimm+0x21374136>
    17b8:	00b50633          	add	a2,a0,a1
    17bc:	3ac0a423          	sw	a2,936(ra)

000017c0 <inst_268>:
    17c0:	0000b537          	lui	a0,0xb
    17c4:	50450513          	addi	a0,a0,1284 # b504 <fromhost+0x5904>
    17c8:	0000b5b7          	lui	a1,0xb
    17cc:	50358593          	addi	a1,a1,1283 # b503 <fromhost+0x5903>
    17d0:	00b50633          	add	a2,a0,a1
    17d4:	3ac0a623          	sw	a2,940(ra)

000017d8 <inst_269>:
    17d8:	0000b537          	lui	a0,0xb
    17dc:	50450513          	addi	a0,a0,1284 # b504 <fromhost+0x5904>
    17e0:	555555b7          	lui	a1,0x55555
    17e4:	55658593          	addi	a1,a1,1366 # 55555556 <absimm+0x10263027>
    17e8:	00b50633          	add	a2,a0,a1
    17ec:	3ac0a823          	sw	a2,944(ra)

000017f0 <inst_270>:
    17f0:	0000b537          	lui	a0,0xb
    17f4:	50450513          	addi	a0,a0,1284 # b504 <fromhost+0x5904>
    17f8:	aaaab5b7          	lui	a1,0xaaaab
    17fc:	aab58593          	addi	a1,a1,-1365 # aaaaaaab <absimm+0x657b857c>
    1800:	00b50633          	add	a2,a0,a1
    1804:	3ac0aa23          	sw	a2,948(ra)

00001808 <inst_271>:
    1808:	0000b537          	lui	a0,0xb
    180c:	50450513          	addi	a0,a0,1284 # b504 <fromhost+0x5904>
    1810:	00600593          	li	a1,6
    1814:	00b50633          	add	a2,a0,a1
    1818:	3ac0ac23          	sw	a2,952(ra)

0000181c <inst_272>:
    181c:	0000b537          	lui	a0,0xb
    1820:	50450513          	addi	a0,a0,1284 # b504 <fromhost+0x5904>
    1824:	333335b7          	lui	a1,0x33333
    1828:	33458593          	addi	a1,a1,820 # 33333334 <fromhost+0x3332d734>
    182c:	00b50633          	add	a2,a0,a1
    1830:	3ac0ae23          	sw	a2,956(ra)

00001834 <inst_273>:
    1834:	0000b537          	lui	a0,0xb
    1838:	50450513          	addi	a0,a0,1284 # b504 <fromhost+0x5904>
    183c:	666665b7          	lui	a1,0x66666
    1840:	66758593          	addi	a1,a1,1639 # 66666667 <absimm+0x21374138>
    1844:	00b50633          	add	a2,a0,a1
    1848:	3cc0a023          	sw	a2,960(ra)

0000184c <inst_274>:
    184c:	0000b537          	lui	a0,0xb
    1850:	50450513          	addi	a0,a0,1284 # b504 <fromhost+0x5904>
    1854:	ffff55b7          	lui	a1,0xffff5
    1858:	afd58593          	addi	a1,a1,-1283 # ffff4afd <immx+0x452e702d>
    185c:	00b50633          	add	a2,a0,a1
    1860:	3cc0a223          	sw	a2,964(ra)

00001864 <inst_275>:
    1864:	0000b537          	lui	a0,0xb
    1868:	50450513          	addi	a0,a0,1284 # b504 <fromhost+0x5904>
    186c:	0000b5b7          	lui	a1,0xb
    1870:	50558593          	addi	a1,a1,1285 # b505 <fromhost+0x5905>
    1874:	00b50633          	add	a2,a0,a1
    1878:	3cc0a423          	sw	a2,968(ra)

0000187c <inst_276>:
    187c:	00200513          	li	a0,2
    1880:	00300593          	li	a1,3
    1884:	00b50633          	add	a2,a0,a1
    1888:	3cc0a623          	sw	a2,972(ra)

0000188c <inst_277>:
    188c:	00200513          	li	a0,2
    1890:	555555b7          	lui	a1,0x55555
    1894:	55558593          	addi	a1,a1,1365 # 55555555 <absimm+0x10263026>
    1898:	00b50633          	add	a2,a0,a1
    189c:	3cc0a823          	sw	a2,976(ra)

000018a0 <inst_278>:
    18a0:	00200513          	li	a0,2
    18a4:	aaaab5b7          	lui	a1,0xaaaab
    18a8:	aaa58593          	addi	a1,a1,-1366 # aaaaaaaa <absimm+0x657b857b>
    18ac:	00b50633          	add	a2,a0,a1
    18b0:	3cc0aa23          	sw	a2,980(ra)

000018b4 <inst_279>:
    18b4:	00200513          	li	a0,2
    18b8:	00500593          	li	a1,5
    18bc:	00b50633          	add	a2,a0,a1
    18c0:	3cc0ac23          	sw	a2,984(ra)

000018c4 <inst_280>:
    18c4:	00200513          	li	a0,2
    18c8:	333335b7          	lui	a1,0x33333
    18cc:	33358593          	addi	a1,a1,819 # 33333333 <fromhost+0x3332d733>
    18d0:	00b50633          	add	a2,a0,a1
    18d4:	3cc0ae23          	sw	a2,988(ra)

000018d8 <inst_281>:
    18d8:	00200513          	li	a0,2
    18dc:	666665b7          	lui	a1,0x66666
    18e0:	66658593          	addi	a1,a1,1638 # 66666666 <absimm+0x21374137>
    18e4:	00b50633          	add	a2,a0,a1
    18e8:	3ec0a023          	sw	a2,992(ra)

000018ec <inst_282>:
    18ec:	00200513          	li	a0,2
    18f0:	ffff55b7          	lui	a1,0xffff5
    18f4:	afc58593          	addi	a1,a1,-1284 # ffff4afc <immx+0x452e702c>
    18f8:	00b50633          	add	a2,a0,a1
    18fc:	3ec0a223          	sw	a2,996(ra)

00001900 <inst_283>:
    1900:	00200513          	li	a0,2
    1904:	0000b5b7          	lui	a1,0xb
    1908:	50458593          	addi	a1,a1,1284 # b504 <fromhost+0x5904>
    190c:	00b50633          	add	a2,a0,a1
    1910:	3ec0a423          	sw	a2,1000(ra)

00001914 <inst_284>:
    1914:	00200513          	li	a0,2
    1918:	00200593          	li	a1,2
    191c:	00b50633          	add	a2,a0,a1
    1920:	3ec0a623          	sw	a2,1004(ra)

00001924 <inst_285>:
    1924:	00200513          	li	a0,2
    1928:	555555b7          	lui	a1,0x55555
    192c:	55458593          	addi	a1,a1,1364 # 55555554 <absimm+0x10263025>
    1930:	00b50633          	add	a2,a0,a1
    1934:	3ec0a823          	sw	a2,1008(ra)

00001938 <inst_286>:
    1938:	00200513          	li	a0,2
    193c:	00000593          	li	a1,0
    1940:	00b50633          	add	a2,a0,a1
    1944:	3ec0aa23          	sw	a2,1012(ra)

00001948 <inst_287>:
    1948:	00200513          	li	a0,2
    194c:	00400593          	li	a1,4
    1950:	00b50633          	add	a2,a0,a1
    1954:	3ec0ac23          	sw	a2,1016(ra)

00001958 <inst_288>:
    1958:	00200513          	li	a0,2
    195c:	333335b7          	lui	a1,0x33333
    1960:	33258593          	addi	a1,a1,818 # 33333332 <fromhost+0x3332d732>
    1964:	00b50633          	add	a2,a0,a1
    1968:	3ec0ae23          	sw	a2,1020(ra)

0000196c <inst_289>:
    196c:	00200513          	li	a0,2
    1970:	666665b7          	lui	a1,0x66666
    1974:	66558593          	addi	a1,a1,1637 # 66666665 <absimm+0x21374136>
    1978:	00b50633          	add	a2,a0,a1
    197c:	40c0a023          	sw	a2,1024(ra)

00001980 <inst_290>:
    1980:	00200513          	li	a0,2
    1984:	0000b5b7          	lui	a1,0xb
    1988:	50358593          	addi	a1,a1,1283 # b503 <fromhost+0x5903>
    198c:	00b50633          	add	a2,a0,a1
    1990:	40c0a223          	sw	a2,1028(ra)

00001994 <inst_291>:
    1994:	00200513          	li	a0,2
    1998:	555555b7          	lui	a1,0x55555
    199c:	55658593          	addi	a1,a1,1366 # 55555556 <absimm+0x10263027>
    19a0:	00b50633          	add	a2,a0,a1
    19a4:	40c0a423          	sw	a2,1032(ra)

000019a8 <inst_292>:
    19a8:	00200513          	li	a0,2
    19ac:	aaaab5b7          	lui	a1,0xaaaab
    19b0:	aab58593          	addi	a1,a1,-1365 # aaaaaaab <absimm+0x657b857c>
    19b4:	00b50633          	add	a2,a0,a1
    19b8:	40c0a623          	sw	a2,1036(ra)

000019bc <inst_293>:
    19bc:	00200513          	li	a0,2
    19c0:	00600593          	li	a1,6
    19c4:	00b50633          	add	a2,a0,a1
    19c8:	40c0a823          	sw	a2,1040(ra)

000019cc <inst_294>:
    19cc:	00200513          	li	a0,2
    19d0:	333335b7          	lui	a1,0x33333
    19d4:	33458593          	addi	a1,a1,820 # 33333334 <fromhost+0x3332d734>
    19d8:	00b50633          	add	a2,a0,a1
    19dc:	40c0aa23          	sw	a2,1044(ra)

000019e0 <inst_295>:
    19e0:	00200513          	li	a0,2
    19e4:	666665b7          	lui	a1,0x66666
    19e8:	66758593          	addi	a1,a1,1639 # 66666667 <absimm+0x21374138>
    19ec:	00b50633          	add	a2,a0,a1
    19f0:	40c0ac23          	sw	a2,1048(ra)

000019f4 <inst_296>:
    19f4:	00200513          	li	a0,2
    19f8:	ffff55b7          	lui	a1,0xffff5
    19fc:	afd58593          	addi	a1,a1,-1283 # ffff4afd <immx+0x452e702d>
    1a00:	00b50633          	add	a2,a0,a1
    1a04:	40c0ae23          	sw	a2,1052(ra)

00001a08 <inst_297>:
    1a08:	00200513          	li	a0,2
    1a0c:	0000b5b7          	lui	a1,0xb
    1a10:	50558593          	addi	a1,a1,1285 # b505 <fromhost+0x5905>
    1a14:	00b50633          	add	a2,a0,a1
    1a18:	42c0a023          	sw	a2,1056(ra)

00001a1c <inst_298>:
    1a1c:	55555537          	lui	a0,0x55555
    1a20:	55450513          	addi	a0,a0,1364 # 55555554 <absimm+0x10263025>
    1a24:	00300593          	li	a1,3
    1a28:	00b50633          	add	a2,a0,a1
    1a2c:	42c0a223          	sw	a2,1060(ra)

00001a30 <inst_299>:
    1a30:	55555537          	lui	a0,0x55555
    1a34:	55450513          	addi	a0,a0,1364 # 55555554 <absimm+0x10263025>
    1a38:	555555b7          	lui	a1,0x55555
    1a3c:	55558593          	addi	a1,a1,1365 # 55555555 <absimm+0x10263026>
    1a40:	00b50633          	add	a2,a0,a1
    1a44:	42c0a423          	sw	a2,1064(ra)

00001a48 <inst_300>:
    1a48:	55555537          	lui	a0,0x55555
    1a4c:	55450513          	addi	a0,a0,1364 # 55555554 <absimm+0x10263025>
    1a50:	aaaab5b7          	lui	a1,0xaaaab
    1a54:	aaa58593          	addi	a1,a1,-1366 # aaaaaaaa <absimm+0x657b857b>
    1a58:	00b50633          	add	a2,a0,a1
    1a5c:	42c0a623          	sw	a2,1068(ra)

00001a60 <inst_301>:
    1a60:	55555537          	lui	a0,0x55555
    1a64:	55450513          	addi	a0,a0,1364 # 55555554 <absimm+0x10263025>
    1a68:	00500593          	li	a1,5
    1a6c:	00b50633          	add	a2,a0,a1
    1a70:	42c0a823          	sw	a2,1072(ra)

00001a74 <inst_302>:
    1a74:	55555537          	lui	a0,0x55555
    1a78:	55450513          	addi	a0,a0,1364 # 55555554 <absimm+0x10263025>
    1a7c:	333335b7          	lui	a1,0x33333
    1a80:	33358593          	addi	a1,a1,819 # 33333333 <fromhost+0x3332d733>
    1a84:	00b50633          	add	a2,a0,a1
    1a88:	42c0aa23          	sw	a2,1076(ra)

00001a8c <inst_303>:
    1a8c:	55555537          	lui	a0,0x55555
    1a90:	55450513          	addi	a0,a0,1364 # 55555554 <absimm+0x10263025>
    1a94:	666665b7          	lui	a1,0x66666
    1a98:	66658593          	addi	a1,a1,1638 # 66666666 <absimm+0x21374137>
    1a9c:	00b50633          	add	a2,a0,a1
    1aa0:	42c0ac23          	sw	a2,1080(ra)

00001aa4 <inst_304>:
    1aa4:	55555537          	lui	a0,0x55555
    1aa8:	55450513          	addi	a0,a0,1364 # 55555554 <absimm+0x10263025>
    1aac:	ffff55b7          	lui	a1,0xffff5
    1ab0:	afc58593          	addi	a1,a1,-1284 # ffff4afc <immx+0x452e702c>
    1ab4:	00b50633          	add	a2,a0,a1
    1ab8:	42c0ae23          	sw	a2,1084(ra)

00001abc <inst_305>:
    1abc:	55555537          	lui	a0,0x55555
    1ac0:	55450513          	addi	a0,a0,1364 # 55555554 <absimm+0x10263025>
    1ac4:	0000b5b7          	lui	a1,0xb
    1ac8:	50458593          	addi	a1,a1,1284 # b504 <fromhost+0x5904>
    1acc:	00b50633          	add	a2,a0,a1
    1ad0:	44c0a023          	sw	a2,1088(ra)

00001ad4 <inst_306>:
    1ad4:	55555537          	lui	a0,0x55555
    1ad8:	55450513          	addi	a0,a0,1364 # 55555554 <absimm+0x10263025>
    1adc:	00200593          	li	a1,2
    1ae0:	00b50633          	add	a2,a0,a1
    1ae4:	44c0a223          	sw	a2,1092(ra)

00001ae8 <inst_307>:
    1ae8:	55555537          	lui	a0,0x55555
    1aec:	55450513          	addi	a0,a0,1364 # 55555554 <absimm+0x10263025>
    1af0:	555555b7          	lui	a1,0x55555
    1af4:	55458593          	addi	a1,a1,1364 # 55555554 <absimm+0x10263025>
    1af8:	00b50633          	add	a2,a0,a1
    1afc:	44c0a423          	sw	a2,1096(ra)

00001b00 <inst_308>:
    1b00:	55555537          	lui	a0,0x55555
    1b04:	55450513          	addi	a0,a0,1364 # 55555554 <absimm+0x10263025>
    1b08:	00000593          	li	a1,0
    1b0c:	00b50633          	add	a2,a0,a1
    1b10:	44c0a623          	sw	a2,1100(ra)

00001b14 <inst_309>:
    1b14:	55555537          	lui	a0,0x55555
    1b18:	55450513          	addi	a0,a0,1364 # 55555554 <absimm+0x10263025>
    1b1c:	00400593          	li	a1,4
    1b20:	00b50633          	add	a2,a0,a1
    1b24:	44c0a823          	sw	a2,1104(ra)

00001b28 <inst_310>:
    1b28:	55555537          	lui	a0,0x55555
    1b2c:	55450513          	addi	a0,a0,1364 # 55555554 <absimm+0x10263025>
    1b30:	333335b7          	lui	a1,0x33333
    1b34:	33258593          	addi	a1,a1,818 # 33333332 <fromhost+0x3332d732>
    1b38:	00b50633          	add	a2,a0,a1
    1b3c:	44c0aa23          	sw	a2,1108(ra)

00001b40 <inst_311>:
    1b40:	55555537          	lui	a0,0x55555
    1b44:	55450513          	addi	a0,a0,1364 # 55555554 <absimm+0x10263025>
    1b48:	666665b7          	lui	a1,0x66666
    1b4c:	66558593          	addi	a1,a1,1637 # 66666665 <absimm+0x21374136>
    1b50:	00b50633          	add	a2,a0,a1
    1b54:	44c0ac23          	sw	a2,1112(ra)

00001b58 <inst_312>:
    1b58:	55555537          	lui	a0,0x55555
    1b5c:	55450513          	addi	a0,a0,1364 # 55555554 <absimm+0x10263025>
    1b60:	0000b5b7          	lui	a1,0xb
    1b64:	50358593          	addi	a1,a1,1283 # b503 <fromhost+0x5903>
    1b68:	00b50633          	add	a2,a0,a1
    1b6c:	44c0ae23          	sw	a2,1116(ra)

00001b70 <inst_313>:
    1b70:	55555537          	lui	a0,0x55555
    1b74:	55450513          	addi	a0,a0,1364 # 55555554 <absimm+0x10263025>
    1b78:	555555b7          	lui	a1,0x55555
    1b7c:	55658593          	addi	a1,a1,1366 # 55555556 <absimm+0x10263027>
    1b80:	00b50633          	add	a2,a0,a1
    1b84:	46c0a023          	sw	a2,1120(ra)

00001b88 <inst_314>:
    1b88:	55555537          	lui	a0,0x55555
    1b8c:	55450513          	addi	a0,a0,1364 # 55555554 <absimm+0x10263025>
    1b90:	aaaab5b7          	lui	a1,0xaaaab
    1b94:	aab58593          	addi	a1,a1,-1365 # aaaaaaab <absimm+0x657b857c>
    1b98:	00b50633          	add	a2,a0,a1
    1b9c:	46c0a223          	sw	a2,1124(ra)

00001ba0 <inst_315>:
    1ba0:	55555537          	lui	a0,0x55555
    1ba4:	55450513          	addi	a0,a0,1364 # 55555554 <absimm+0x10263025>
    1ba8:	00600593          	li	a1,6
    1bac:	00b50633          	add	a2,a0,a1
    1bb0:	46c0a423          	sw	a2,1128(ra)

00001bb4 <inst_316>:
    1bb4:	55555537          	lui	a0,0x55555
    1bb8:	55450513          	addi	a0,a0,1364 # 55555554 <absimm+0x10263025>
    1bbc:	333335b7          	lui	a1,0x33333
    1bc0:	33458593          	addi	a1,a1,820 # 33333334 <fromhost+0x3332d734>
    1bc4:	00b50633          	add	a2,a0,a1
    1bc8:	46c0a623          	sw	a2,1132(ra)

00001bcc <inst_317>:
    1bcc:	55555537          	lui	a0,0x55555
    1bd0:	55450513          	addi	a0,a0,1364 # 55555554 <absimm+0x10263025>
    1bd4:	666665b7          	lui	a1,0x66666
    1bd8:	66758593          	addi	a1,a1,1639 # 66666667 <absimm+0x21374138>
    1bdc:	00b50633          	add	a2,a0,a1
    1be0:	46c0a823          	sw	a2,1136(ra)

00001be4 <inst_318>:
    1be4:	55555537          	lui	a0,0x55555
    1be8:	55450513          	addi	a0,a0,1364 # 55555554 <absimm+0x10263025>
    1bec:	ffff55b7          	lui	a1,0xffff5
    1bf0:	afd58593          	addi	a1,a1,-1283 # ffff4afd <immx+0x452e702d>
    1bf4:	00b50633          	add	a2,a0,a1
    1bf8:	46c0aa23          	sw	a2,1140(ra)

00001bfc <inst_319>:
    1bfc:	55555537          	lui	a0,0x55555
    1c00:	55450513          	addi	a0,a0,1364 # 55555554 <absimm+0x10263025>
    1c04:	0000b5b7          	lui	a1,0xb
    1c08:	50558593          	addi	a1,a1,1285 # b505 <fromhost+0x5905>
    1c0c:	00b50633          	add	a2,a0,a1
    1c10:	46c0ac23          	sw	a2,1144(ra)

00001c14 <inst_320>:
    1c14:	00000513          	li	a0,0
    1c18:	00300593          	li	a1,3
    1c1c:	00b50633          	add	a2,a0,a1
    1c20:	46c0ae23          	sw	a2,1148(ra)

00001c24 <inst_321>:
    1c24:	00000513          	li	a0,0
    1c28:	555555b7          	lui	a1,0x55555
    1c2c:	55558593          	addi	a1,a1,1365 # 55555555 <absimm+0x10263026>
    1c30:	00b50633          	add	a2,a0,a1
    1c34:	48c0a023          	sw	a2,1152(ra)

00001c38 <inst_322>:
    1c38:	00000513          	li	a0,0
    1c3c:	aaaab5b7          	lui	a1,0xaaaab
    1c40:	aaa58593          	addi	a1,a1,-1366 # aaaaaaaa <absimm+0x657b857b>
    1c44:	00b50633          	add	a2,a0,a1
    1c48:	48c0a223          	sw	a2,1156(ra)

00001c4c <inst_323>:
    1c4c:	00000513          	li	a0,0
    1c50:	00500593          	li	a1,5
    1c54:	00b50633          	add	a2,a0,a1
    1c58:	48c0a423          	sw	a2,1160(ra)

00001c5c <inst_324>:
    1c5c:	00000513          	li	a0,0
    1c60:	333335b7          	lui	a1,0x33333
    1c64:	33358593          	addi	a1,a1,819 # 33333333 <fromhost+0x3332d733>
    1c68:	00b50633          	add	a2,a0,a1
    1c6c:	48c0a623          	sw	a2,1164(ra)

00001c70 <inst_325>:
    1c70:	00000513          	li	a0,0
    1c74:	666665b7          	lui	a1,0x66666
    1c78:	66658593          	addi	a1,a1,1638 # 66666666 <absimm+0x21374137>
    1c7c:	00b50633          	add	a2,a0,a1
    1c80:	48c0a823          	sw	a2,1168(ra)

00001c84 <inst_326>:
    1c84:	00000513          	li	a0,0
    1c88:	ffff55b7          	lui	a1,0xffff5
    1c8c:	afc58593          	addi	a1,a1,-1284 # ffff4afc <immx+0x452e702c>
    1c90:	00b50633          	add	a2,a0,a1
    1c94:	48c0aa23          	sw	a2,1172(ra)

00001c98 <inst_327>:
    1c98:	00000513          	li	a0,0
    1c9c:	0000b5b7          	lui	a1,0xb
    1ca0:	50458593          	addi	a1,a1,1284 # b504 <fromhost+0x5904>
    1ca4:	00b50633          	add	a2,a0,a1
    1ca8:	48c0ac23          	sw	a2,1176(ra)

00001cac <inst_328>:
    1cac:	aaaab537          	lui	a0,0xaaaab
    1cb0:	aab50513          	addi	a0,a0,-1365 # aaaaaaab <absimm+0x657b857c>
    1cb4:	aaaab5b7          	lui	a1,0xaaaab
    1cb8:	aab58593          	addi	a1,a1,-1365 # aaaaaaab <absimm+0x657b857c>
    1cbc:	00b50633          	add	a2,a0,a1
    1cc0:	48c0ae23          	sw	a2,1180(ra)

00001cc4 <inst_329>:
    1cc4:	aaaab537          	lui	a0,0xaaaab
    1cc8:	aab50513          	addi	a0,a0,-1365 # aaaaaaab <absimm+0x657b857c>
    1ccc:	00600593          	li	a1,6
    1cd0:	00b50633          	add	a2,a0,a1
    1cd4:	4ac0a023          	sw	a2,1184(ra)

00001cd8 <inst_330>:
    1cd8:	aaaab537          	lui	a0,0xaaaab
    1cdc:	aab50513          	addi	a0,a0,-1365 # aaaaaaab <absimm+0x657b857c>
    1ce0:	333335b7          	lui	a1,0x33333
    1ce4:	33458593          	addi	a1,a1,820 # 33333334 <fromhost+0x3332d734>
    1ce8:	00b50633          	add	a2,a0,a1
    1cec:	4ac0a223          	sw	a2,1188(ra)

00001cf0 <inst_331>:
    1cf0:	aaaab537          	lui	a0,0xaaaab
    1cf4:	aab50513          	addi	a0,a0,-1365 # aaaaaaab <absimm+0x657b857c>
    1cf8:	666665b7          	lui	a1,0x66666
    1cfc:	66758593          	addi	a1,a1,1639 # 66666667 <absimm+0x21374138>
    1d00:	00b50633          	add	a2,a0,a1
    1d04:	4ac0a423          	sw	a2,1192(ra)

00001d08 <inst_332>:
    1d08:	aaaab537          	lui	a0,0xaaaab
    1d0c:	aab50513          	addi	a0,a0,-1365 # aaaaaaab <absimm+0x657b857c>
    1d10:	ffff55b7          	lui	a1,0xffff5
    1d14:	afd58593          	addi	a1,a1,-1283 # ffff4afd <immx+0x452e702d>
    1d18:	00b50633          	add	a2,a0,a1
    1d1c:	4ac0a623          	sw	a2,1196(ra)

00001d20 <inst_333>:
    1d20:	aaaab537          	lui	a0,0xaaaab
    1d24:	aab50513          	addi	a0,a0,-1365 # aaaaaaab <absimm+0x657b857c>
    1d28:	0000b5b7          	lui	a1,0xb
    1d2c:	50558593          	addi	a1,a1,1285 # b505 <fromhost+0x5905>
    1d30:	00b50633          	add	a2,a0,a1
    1d34:	4ac0a823          	sw	a2,1200(ra)

00001d38 <inst_334>:
    1d38:	00600513          	li	a0,6
    1d3c:	00300593          	li	a1,3
    1d40:	00b50633          	add	a2,a0,a1
    1d44:	4ac0aa23          	sw	a2,1204(ra)

00001d48 <inst_335>:
    1d48:	00600513          	li	a0,6
    1d4c:	555555b7          	lui	a1,0x55555
    1d50:	55558593          	addi	a1,a1,1365 # 55555555 <absimm+0x10263026>
    1d54:	00b50633          	add	a2,a0,a1
    1d58:	4ac0ac23          	sw	a2,1208(ra)

00001d5c <inst_336>:
    1d5c:	00600513          	li	a0,6
    1d60:	aaaab5b7          	lui	a1,0xaaaab
    1d64:	aaa58593          	addi	a1,a1,-1366 # aaaaaaaa <absimm+0x657b857b>
    1d68:	00b50633          	add	a2,a0,a1
    1d6c:	4ac0ae23          	sw	a2,1212(ra)

00001d70 <inst_337>:
    1d70:	00600513          	li	a0,6
    1d74:	00500593          	li	a1,5
    1d78:	00b50633          	add	a2,a0,a1
    1d7c:	4cc0a023          	sw	a2,1216(ra)

00001d80 <inst_338>:
    1d80:	00600513          	li	a0,6
    1d84:	333335b7          	lui	a1,0x33333
    1d88:	33358593          	addi	a1,a1,819 # 33333333 <fromhost+0x3332d733>
    1d8c:	00b50633          	add	a2,a0,a1
    1d90:	4cc0a223          	sw	a2,1220(ra)

00001d94 <inst_339>:
    1d94:	00600513          	li	a0,6
    1d98:	666665b7          	lui	a1,0x66666
    1d9c:	66658593          	addi	a1,a1,1638 # 66666666 <absimm+0x21374137>
    1da0:	00b50633          	add	a2,a0,a1
    1da4:	4cc0a423          	sw	a2,1224(ra)

00001da8 <inst_340>:
    1da8:	00600513          	li	a0,6
    1dac:	ffff55b7          	lui	a1,0xffff5
    1db0:	afc58593          	addi	a1,a1,-1284 # ffff4afc <immx+0x452e702c>
    1db4:	00b50633          	add	a2,a0,a1
    1db8:	4cc0a623          	sw	a2,1228(ra)

00001dbc <inst_341>:
    1dbc:	00600513          	li	a0,6
    1dc0:	0000b5b7          	lui	a1,0xb
    1dc4:	50458593          	addi	a1,a1,1284 # b504 <fromhost+0x5904>
    1dc8:	00b50633          	add	a2,a0,a1
    1dcc:	4cc0a823          	sw	a2,1232(ra)

00001dd0 <inst_342>:
    1dd0:	00600513          	li	a0,6
    1dd4:	00200593          	li	a1,2
    1dd8:	00b50633          	add	a2,a0,a1
    1ddc:	4cc0aa23          	sw	a2,1236(ra)

00001de0 <inst_343>:
    1de0:	00600513          	li	a0,6
    1de4:	555555b7          	lui	a1,0x55555
    1de8:	55458593          	addi	a1,a1,1364 # 55555554 <absimm+0x10263025>
    1dec:	00b50633          	add	a2,a0,a1
    1df0:	4cc0ac23          	sw	a2,1240(ra)

00001df4 <inst_344>:
    1df4:	00600513          	li	a0,6
    1df8:	00000593          	li	a1,0
    1dfc:	00b50633          	add	a2,a0,a1
    1e00:	4cc0ae23          	sw	a2,1244(ra)

00001e04 <inst_345>:
    1e04:	00600513          	li	a0,6
    1e08:	00400593          	li	a1,4
    1e0c:	00b50633          	add	a2,a0,a1
    1e10:	4ec0a023          	sw	a2,1248(ra)

00001e14 <inst_346>:
    1e14:	00600513          	li	a0,6
    1e18:	333335b7          	lui	a1,0x33333
    1e1c:	33258593          	addi	a1,a1,818 # 33333332 <fromhost+0x3332d732>
    1e20:	00b50633          	add	a2,a0,a1
    1e24:	4ec0a223          	sw	a2,1252(ra)

00001e28 <inst_347>:
    1e28:	00600513          	li	a0,6
    1e2c:	666665b7          	lui	a1,0x66666
    1e30:	66558593          	addi	a1,a1,1637 # 66666665 <absimm+0x21374136>
    1e34:	00b50633          	add	a2,a0,a1
    1e38:	4ec0a423          	sw	a2,1256(ra)

00001e3c <inst_348>:
    1e3c:	00600513          	li	a0,6
    1e40:	0000b5b7          	lui	a1,0xb
    1e44:	50358593          	addi	a1,a1,1283 # b503 <fromhost+0x5903>
    1e48:	00b50633          	add	a2,a0,a1
    1e4c:	4ec0a623          	sw	a2,1260(ra)

00001e50 <inst_349>:
    1e50:	00600513          	li	a0,6
    1e54:	555555b7          	lui	a1,0x55555
    1e58:	55658593          	addi	a1,a1,1366 # 55555556 <absimm+0x10263027>
    1e5c:	00b50633          	add	a2,a0,a1
    1e60:	4ec0a823          	sw	a2,1264(ra)

00001e64 <inst_350>:
    1e64:	00600513          	li	a0,6
    1e68:	aaaab5b7          	lui	a1,0xaaaab
    1e6c:	aab58593          	addi	a1,a1,-1365 # aaaaaaab <absimm+0x657b857c>
    1e70:	00b50633          	add	a2,a0,a1
    1e74:	4ec0aa23          	sw	a2,1268(ra)

00001e78 <inst_351>:
    1e78:	00600513          	li	a0,6
    1e7c:	00600593          	li	a1,6
    1e80:	00b50633          	add	a2,a0,a1
    1e84:	4ec0ac23          	sw	a2,1272(ra)

00001e88 <inst_352>:
    1e88:	00600513          	li	a0,6
    1e8c:	333335b7          	lui	a1,0x33333
    1e90:	33458593          	addi	a1,a1,820 # 33333334 <fromhost+0x3332d734>
    1e94:	00b50633          	add	a2,a0,a1
    1e98:	4ec0ae23          	sw	a2,1276(ra)

00001e9c <inst_353>:
    1e9c:	00600513          	li	a0,6
    1ea0:	666665b7          	lui	a1,0x66666
    1ea4:	66758593          	addi	a1,a1,1639 # 66666667 <absimm+0x21374138>
    1ea8:	00b50633          	add	a2,a0,a1
    1eac:	50c0a023          	sw	a2,1280(ra)

00001eb0 <inst_354>:
    1eb0:	00600513          	li	a0,6
    1eb4:	ffff55b7          	lui	a1,0xffff5
    1eb8:	afd58593          	addi	a1,a1,-1283 # ffff4afd <immx+0x452e702d>
    1ebc:	00b50633          	add	a2,a0,a1
    1ec0:	50c0a223          	sw	a2,1284(ra)

00001ec4 <inst_355>:
    1ec4:	00600513          	li	a0,6
    1ec8:	0000b5b7          	lui	a1,0xb
    1ecc:	50558593          	addi	a1,a1,1285 # b505 <fromhost+0x5905>
    1ed0:	00b50633          	add	a2,a0,a1
    1ed4:	50c0a423          	sw	a2,1288(ra)

00001ed8 <inst_356>:
    1ed8:	33333537          	lui	a0,0x33333
    1edc:	33450513          	addi	a0,a0,820 # 33333334 <fromhost+0x3332d734>
    1ee0:	00300593          	li	a1,3
    1ee4:	00b50633          	add	a2,a0,a1
    1ee8:	50c0a623          	sw	a2,1292(ra)

00001eec <inst_357>:
    1eec:	33333537          	lui	a0,0x33333
    1ef0:	33450513          	addi	a0,a0,820 # 33333334 <fromhost+0x3332d734>
    1ef4:	555555b7          	lui	a1,0x55555
    1ef8:	55558593          	addi	a1,a1,1365 # 55555555 <absimm+0x10263026>
    1efc:	00b50633          	add	a2,a0,a1
    1f00:	50c0a823          	sw	a2,1296(ra)

00001f04 <inst_358>:
    1f04:	33333537          	lui	a0,0x33333
    1f08:	33450513          	addi	a0,a0,820 # 33333334 <fromhost+0x3332d734>
    1f0c:	aaaab5b7          	lui	a1,0xaaaab
    1f10:	aaa58593          	addi	a1,a1,-1366 # aaaaaaaa <absimm+0x657b857b>
    1f14:	00b50633          	add	a2,a0,a1
    1f18:	50c0aa23          	sw	a2,1300(ra)

00001f1c <inst_359>:
    1f1c:	33333537          	lui	a0,0x33333
    1f20:	33450513          	addi	a0,a0,820 # 33333334 <fromhost+0x3332d734>
    1f24:	00500593          	li	a1,5
    1f28:	00b50633          	add	a2,a0,a1
    1f2c:	50c0ac23          	sw	a2,1304(ra)

00001f30 <inst_360>:
    1f30:	33333537          	lui	a0,0x33333
    1f34:	33450513          	addi	a0,a0,820 # 33333334 <fromhost+0x3332d734>
    1f38:	333335b7          	lui	a1,0x33333
    1f3c:	33358593          	addi	a1,a1,819 # 33333333 <fromhost+0x3332d733>
    1f40:	00b50633          	add	a2,a0,a1
    1f44:	50c0ae23          	sw	a2,1308(ra)

00001f48 <inst_361>:
    1f48:	33333537          	lui	a0,0x33333
    1f4c:	33450513          	addi	a0,a0,820 # 33333334 <fromhost+0x3332d734>
    1f50:	666665b7          	lui	a1,0x66666
    1f54:	66658593          	addi	a1,a1,1638 # 66666666 <absimm+0x21374137>
    1f58:	00b50633          	add	a2,a0,a1
    1f5c:	52c0a023          	sw	a2,1312(ra)

00001f60 <inst_362>:
    1f60:	33333537          	lui	a0,0x33333
    1f64:	33450513          	addi	a0,a0,820 # 33333334 <fromhost+0x3332d734>
    1f68:	ffff55b7          	lui	a1,0xffff5
    1f6c:	afc58593          	addi	a1,a1,-1284 # ffff4afc <immx+0x452e702c>
    1f70:	00b50633          	add	a2,a0,a1
    1f74:	52c0a223          	sw	a2,1316(ra)

00001f78 <inst_363>:
    1f78:	33333537          	lui	a0,0x33333
    1f7c:	33450513          	addi	a0,a0,820 # 33333334 <fromhost+0x3332d734>
    1f80:	0000b5b7          	lui	a1,0xb
    1f84:	50458593          	addi	a1,a1,1284 # b504 <fromhost+0x5904>
    1f88:	00b50633          	add	a2,a0,a1
    1f8c:	52c0a423          	sw	a2,1320(ra)

00001f90 <inst_364>:
    1f90:	33333537          	lui	a0,0x33333
    1f94:	33450513          	addi	a0,a0,820 # 33333334 <fromhost+0x3332d734>
    1f98:	00200593          	li	a1,2
    1f9c:	00b50633          	add	a2,a0,a1
    1fa0:	52c0a623          	sw	a2,1324(ra)

00001fa4 <inst_365>:
    1fa4:	33333537          	lui	a0,0x33333
    1fa8:	33450513          	addi	a0,a0,820 # 33333334 <fromhost+0x3332d734>
    1fac:	555555b7          	lui	a1,0x55555
    1fb0:	55458593          	addi	a1,a1,1364 # 55555554 <absimm+0x10263025>
    1fb4:	00b50633          	add	a2,a0,a1
    1fb8:	52c0a823          	sw	a2,1328(ra)

00001fbc <inst_366>:
    1fbc:	33333537          	lui	a0,0x33333
    1fc0:	33450513          	addi	a0,a0,820 # 33333334 <fromhost+0x3332d734>
    1fc4:	00000593          	li	a1,0
    1fc8:	00b50633          	add	a2,a0,a1
    1fcc:	52c0aa23          	sw	a2,1332(ra)

00001fd0 <inst_367>:
    1fd0:	33333537          	lui	a0,0x33333
    1fd4:	33450513          	addi	a0,a0,820 # 33333334 <fromhost+0x3332d734>
    1fd8:	00400593          	li	a1,4
    1fdc:	00b50633          	add	a2,a0,a1
    1fe0:	52c0ac23          	sw	a2,1336(ra)

00001fe4 <inst_368>:
    1fe4:	33333537          	lui	a0,0x33333
    1fe8:	33450513          	addi	a0,a0,820 # 33333334 <fromhost+0x3332d734>
    1fec:	333335b7          	lui	a1,0x33333
    1ff0:	33258593          	addi	a1,a1,818 # 33333332 <fromhost+0x3332d732>
    1ff4:	00b50633          	add	a2,a0,a1
    1ff8:	52c0ae23          	sw	a2,1340(ra)

00001ffc <inst_369>:
    1ffc:	33333537          	lui	a0,0x33333
    2000:	33450513          	addi	a0,a0,820 # 33333334 <fromhost+0x3332d734>
    2004:	666665b7          	lui	a1,0x66666
    2008:	66558593          	addi	a1,a1,1637 # 66666665 <absimm+0x21374136>
    200c:	00b50633          	add	a2,a0,a1
    2010:	54c0a023          	sw	a2,1344(ra)

00002014 <inst_370>:
    2014:	33333537          	lui	a0,0x33333
    2018:	33450513          	addi	a0,a0,820 # 33333334 <fromhost+0x3332d734>
    201c:	0000b5b7          	lui	a1,0xb
    2020:	50358593          	addi	a1,a1,1283 # b503 <fromhost+0x5903>
    2024:	00b50633          	add	a2,a0,a1
    2028:	54c0a223          	sw	a2,1348(ra)

0000202c <inst_371>:
    202c:	33333537          	lui	a0,0x33333
    2030:	33450513          	addi	a0,a0,820 # 33333334 <fromhost+0x3332d734>
    2034:	555555b7          	lui	a1,0x55555
    2038:	55658593          	addi	a1,a1,1366 # 55555556 <absimm+0x10263027>
    203c:	00b50633          	add	a2,a0,a1
    2040:	54c0a423          	sw	a2,1352(ra)

00002044 <inst_372>:
    2044:	33333537          	lui	a0,0x33333
    2048:	33450513          	addi	a0,a0,820 # 33333334 <fromhost+0x3332d734>
    204c:	aaaab5b7          	lui	a1,0xaaaab
    2050:	aab58593          	addi	a1,a1,-1365 # aaaaaaab <absimm+0x657b857c>
    2054:	00b50633          	add	a2,a0,a1
    2058:	54c0a623          	sw	a2,1356(ra)

0000205c <inst_373>:
    205c:	33333537          	lui	a0,0x33333
    2060:	33450513          	addi	a0,a0,820 # 33333334 <fromhost+0x3332d734>
    2064:	00600593          	li	a1,6
    2068:	00b50633          	add	a2,a0,a1
    206c:	54c0a823          	sw	a2,1360(ra)

00002070 <inst_374>:
    2070:	33333537          	lui	a0,0x33333
    2074:	33450513          	addi	a0,a0,820 # 33333334 <fromhost+0x3332d734>
    2078:	333335b7          	lui	a1,0x33333
    207c:	33458593          	addi	a1,a1,820 # 33333334 <fromhost+0x3332d734>
    2080:	00b50633          	add	a2,a0,a1
    2084:	54c0aa23          	sw	a2,1364(ra)

00002088 <inst_375>:
    2088:	33333537          	lui	a0,0x33333
    208c:	33450513          	addi	a0,a0,820 # 33333334 <fromhost+0x3332d734>
    2090:	666665b7          	lui	a1,0x66666
    2094:	66758593          	addi	a1,a1,1639 # 66666667 <absimm+0x21374138>
    2098:	00b50633          	add	a2,a0,a1
    209c:	54c0ac23          	sw	a2,1368(ra)

000020a0 <inst_376>:
    20a0:	33333537          	lui	a0,0x33333
    20a4:	33450513          	addi	a0,a0,820 # 33333334 <fromhost+0x3332d734>
    20a8:	ffff55b7          	lui	a1,0xffff5
    20ac:	afd58593          	addi	a1,a1,-1283 # ffff4afd <immx+0x452e702d>
    20b0:	00b50633          	add	a2,a0,a1
    20b4:	54c0ae23          	sw	a2,1372(ra)

000020b8 <inst_377>:
    20b8:	33333537          	lui	a0,0x33333
    20bc:	33450513          	addi	a0,a0,820 # 33333334 <fromhost+0x3332d734>
    20c0:	0000b5b7          	lui	a1,0xb
    20c4:	50558593          	addi	a1,a1,1285 # b505 <fromhost+0x5905>
    20c8:	00b50633          	add	a2,a0,a1
    20cc:	56c0a023          	sw	a2,1376(ra)

000020d0 <inst_378>:
    20d0:	66666537          	lui	a0,0x66666
    20d4:	66750513          	addi	a0,a0,1639 # 66666667 <absimm+0x21374138>
    20d8:	00300593          	li	a1,3
    20dc:	00b50633          	add	a2,a0,a1
    20e0:	56c0a223          	sw	a2,1380(ra)

000020e4 <inst_379>:
    20e4:	66666537          	lui	a0,0x66666
    20e8:	66750513          	addi	a0,a0,1639 # 66666667 <absimm+0x21374138>
    20ec:	555555b7          	lui	a1,0x55555
    20f0:	55558593          	addi	a1,a1,1365 # 55555555 <absimm+0x10263026>
    20f4:	00b50633          	add	a2,a0,a1
    20f8:	56c0a423          	sw	a2,1384(ra)

000020fc <inst_380>:
    20fc:	66666537          	lui	a0,0x66666
    2100:	66750513          	addi	a0,a0,1639 # 66666667 <absimm+0x21374138>
    2104:	aaaab5b7          	lui	a1,0xaaaab
    2108:	aaa58593          	addi	a1,a1,-1366 # aaaaaaaa <absimm+0x657b857b>
    210c:	00b50633          	add	a2,a0,a1
    2110:	56c0a623          	sw	a2,1388(ra)

00002114 <inst_381>:
    2114:	66666537          	lui	a0,0x66666
    2118:	66750513          	addi	a0,a0,1639 # 66666667 <absimm+0x21374138>
    211c:	00500593          	li	a1,5
    2120:	00b50633          	add	a2,a0,a1
    2124:	56c0a823          	sw	a2,1392(ra)

00002128 <inst_382>:
    2128:	66666537          	lui	a0,0x66666
    212c:	66750513          	addi	a0,a0,1639 # 66666667 <absimm+0x21374138>
    2130:	333335b7          	lui	a1,0x33333
    2134:	33358593          	addi	a1,a1,819 # 33333333 <fromhost+0x3332d733>
    2138:	00b50633          	add	a2,a0,a1
    213c:	56c0aa23          	sw	a2,1396(ra)

00002140 <inst_383>:
    2140:	66666537          	lui	a0,0x66666
    2144:	66750513          	addi	a0,a0,1639 # 66666667 <absimm+0x21374138>
    2148:	666665b7          	lui	a1,0x66666
    214c:	66658593          	addi	a1,a1,1638 # 66666666 <absimm+0x21374137>
    2150:	00b50633          	add	a2,a0,a1
    2154:	56c0ac23          	sw	a2,1400(ra)

00002158 <inst_384>:
    2158:	66666537          	lui	a0,0x66666
    215c:	66750513          	addi	a0,a0,1639 # 66666667 <absimm+0x21374138>
    2160:	ffff55b7          	lui	a1,0xffff5
    2164:	afc58593          	addi	a1,a1,-1284 # ffff4afc <immx+0x452e702c>
    2168:	00b50633          	add	a2,a0,a1
    216c:	56c0ae23          	sw	a2,1404(ra)

00002170 <inst_385>:
    2170:	66666537          	lui	a0,0x66666
    2174:	66750513          	addi	a0,a0,1639 # 66666667 <absimm+0x21374138>
    2178:	0000b5b7          	lui	a1,0xb
    217c:	50458593          	addi	a1,a1,1284 # b504 <fromhost+0x5904>
    2180:	00b50633          	add	a2,a0,a1
    2184:	58c0a023          	sw	a2,1408(ra)

00002188 <inst_386>:
    2188:	66666537          	lui	a0,0x66666
    218c:	66750513          	addi	a0,a0,1639 # 66666667 <absimm+0x21374138>
    2190:	00200593          	li	a1,2
    2194:	00b50633          	add	a2,a0,a1
    2198:	58c0a223          	sw	a2,1412(ra)

0000219c <inst_387>:
    219c:	66666537          	lui	a0,0x66666
    21a0:	66750513          	addi	a0,a0,1639 # 66666667 <absimm+0x21374138>
    21a4:	555555b7          	lui	a1,0x55555
    21a8:	55458593          	addi	a1,a1,1364 # 55555554 <absimm+0x10263025>
    21ac:	00b50633          	add	a2,a0,a1
    21b0:	58c0a423          	sw	a2,1416(ra)

000021b4 <inst_388>:
    21b4:	66666537          	lui	a0,0x66666
    21b8:	66750513          	addi	a0,a0,1639 # 66666667 <absimm+0x21374138>
    21bc:	00000593          	li	a1,0
    21c0:	00b50633          	add	a2,a0,a1
    21c4:	58c0a623          	sw	a2,1420(ra)

000021c8 <inst_389>:
    21c8:	66666537          	lui	a0,0x66666
    21cc:	66750513          	addi	a0,a0,1639 # 66666667 <absimm+0x21374138>
    21d0:	00400593          	li	a1,4
    21d4:	00b50633          	add	a2,a0,a1
    21d8:	58c0a823          	sw	a2,1424(ra)

000021dc <inst_390>:
    21dc:	66666537          	lui	a0,0x66666
    21e0:	66750513          	addi	a0,a0,1639 # 66666667 <absimm+0x21374138>
    21e4:	333335b7          	lui	a1,0x33333
    21e8:	33258593          	addi	a1,a1,818 # 33333332 <fromhost+0x3332d732>
    21ec:	00b50633          	add	a2,a0,a1
    21f0:	58c0aa23          	sw	a2,1428(ra)

000021f4 <inst_391>:
    21f4:	66666537          	lui	a0,0x66666
    21f8:	66750513          	addi	a0,a0,1639 # 66666667 <absimm+0x21374138>
    21fc:	666665b7          	lui	a1,0x66666
    2200:	66558593          	addi	a1,a1,1637 # 66666665 <absimm+0x21374136>
    2204:	00b50633          	add	a2,a0,a1
    2208:	58c0ac23          	sw	a2,1432(ra)

0000220c <inst_392>:
    220c:	66666537          	lui	a0,0x66666
    2210:	66750513          	addi	a0,a0,1639 # 66666667 <absimm+0x21374138>
    2214:	0000b5b7          	lui	a1,0xb
    2218:	50358593          	addi	a1,a1,1283 # b503 <fromhost+0x5903>
    221c:	00b50633          	add	a2,a0,a1
    2220:	58c0ae23          	sw	a2,1436(ra)

00002224 <inst_393>:
    2224:	66666537          	lui	a0,0x66666
    2228:	66750513          	addi	a0,a0,1639 # 66666667 <absimm+0x21374138>
    222c:	555555b7          	lui	a1,0x55555
    2230:	55658593          	addi	a1,a1,1366 # 55555556 <absimm+0x10263027>
    2234:	00b50633          	add	a2,a0,a1
    2238:	5ac0a023          	sw	a2,1440(ra)

0000223c <inst_394>:
    223c:	66666537          	lui	a0,0x66666
    2240:	66750513          	addi	a0,a0,1639 # 66666667 <absimm+0x21374138>
    2244:	aaaab5b7          	lui	a1,0xaaaab
    2248:	aab58593          	addi	a1,a1,-1365 # aaaaaaab <absimm+0x657b857c>
    224c:	00b50633          	add	a2,a0,a1
    2250:	5ac0a223          	sw	a2,1444(ra)

00002254 <inst_395>:
    2254:	66666537          	lui	a0,0x66666
    2258:	66750513          	addi	a0,a0,1639 # 66666667 <absimm+0x21374138>
    225c:	00600593          	li	a1,6
    2260:	00b50633          	add	a2,a0,a1
    2264:	5ac0a423          	sw	a2,1448(ra)

00002268 <inst_396>:
    2268:	66666537          	lui	a0,0x66666
    226c:	66750513          	addi	a0,a0,1639 # 66666667 <absimm+0x21374138>
    2270:	333335b7          	lui	a1,0x33333
    2274:	33458593          	addi	a1,a1,820 # 33333334 <fromhost+0x3332d734>
    2278:	00b50633          	add	a2,a0,a1
    227c:	5ac0a623          	sw	a2,1452(ra)

00002280 <inst_397>:
    2280:	66666537          	lui	a0,0x66666
    2284:	66750513          	addi	a0,a0,1639 # 66666667 <absimm+0x21374138>
    2288:	666665b7          	lui	a1,0x66666
    228c:	66758593          	addi	a1,a1,1639 # 66666667 <absimm+0x21374138>
    2290:	00b50633          	add	a2,a0,a1
    2294:	5ac0a823          	sw	a2,1456(ra)

00002298 <inst_398>:
    2298:	66666537          	lui	a0,0x66666
    229c:	66750513          	addi	a0,a0,1639 # 66666667 <absimm+0x21374138>
    22a0:	ffff55b7          	lui	a1,0xffff5
    22a4:	afd58593          	addi	a1,a1,-1283 # ffff4afd <immx+0x452e702d>
    22a8:	00b50633          	add	a2,a0,a1
    22ac:	5ac0aa23          	sw	a2,1460(ra)

000022b0 <inst_399>:
    22b0:	66666537          	lui	a0,0x66666
    22b4:	66750513          	addi	a0,a0,1639 # 66666667 <absimm+0x21374138>
    22b8:	0000b5b7          	lui	a1,0xb
    22bc:	50558593          	addi	a1,a1,1285 # b505 <fromhost+0x5905>
    22c0:	00b50633          	add	a2,a0,a1
    22c4:	5ac0ac23          	sw	a2,1464(ra)

000022c8 <inst_400>:
    22c8:	ffff5537          	lui	a0,0xffff5
    22cc:	afd50513          	addi	a0,a0,-1283 # ffff4afd <immx+0x452e702d>
    22d0:	00300593          	li	a1,3
    22d4:	00b50633          	add	a2,a0,a1
    22d8:	5ac0ae23          	sw	a2,1468(ra)

000022dc <inst_401>:
    22dc:	ffff5537          	lui	a0,0xffff5
    22e0:	afd50513          	addi	a0,a0,-1283 # ffff4afd <immx+0x452e702d>
    22e4:	555555b7          	lui	a1,0x55555
    22e8:	55558593          	addi	a1,a1,1365 # 55555555 <absimm+0x10263026>
    22ec:	00b50633          	add	a2,a0,a1
    22f0:	5cc0a023          	sw	a2,1472(ra)

000022f4 <inst_402>:
    22f4:	ffff5537          	lui	a0,0xffff5
    22f8:	afd50513          	addi	a0,a0,-1283 # ffff4afd <immx+0x452e702d>
    22fc:	aaaab5b7          	lui	a1,0xaaaab
    2300:	aaa58593          	addi	a1,a1,-1366 # aaaaaaaa <absimm+0x657b857b>
    2304:	00b50633          	add	a2,a0,a1
    2308:	5cc0a223          	sw	a2,1476(ra)

0000230c <inst_403>:
    230c:	ffff5537          	lui	a0,0xffff5
    2310:	afd50513          	addi	a0,a0,-1283 # ffff4afd <immx+0x452e702d>
    2314:	00500593          	li	a1,5
    2318:	00b50633          	add	a2,a0,a1
    231c:	5cc0a423          	sw	a2,1480(ra)

00002320 <inst_404>:
    2320:	ffff5537          	lui	a0,0xffff5
    2324:	afd50513          	addi	a0,a0,-1283 # ffff4afd <immx+0x452e702d>
    2328:	333335b7          	lui	a1,0x33333
    232c:	33358593          	addi	a1,a1,819 # 33333333 <fromhost+0x3332d733>
    2330:	00b50633          	add	a2,a0,a1
    2334:	5cc0a623          	sw	a2,1484(ra)

00002338 <inst_405>:
    2338:	ffff5537          	lui	a0,0xffff5
    233c:	afd50513          	addi	a0,a0,-1283 # ffff4afd <immx+0x452e702d>
    2340:	666665b7          	lui	a1,0x66666
    2344:	66658593          	addi	a1,a1,1638 # 66666666 <absimm+0x21374137>
    2348:	00b50633          	add	a2,a0,a1
    234c:	5cc0a823          	sw	a2,1488(ra)

00002350 <inst_406>:
    2350:	ffff5537          	lui	a0,0xffff5
    2354:	afd50513          	addi	a0,a0,-1283 # ffff4afd <immx+0x452e702d>
    2358:	ffff55b7          	lui	a1,0xffff5
    235c:	afc58593          	addi	a1,a1,-1284 # ffff4afc <immx+0x452e702c>
    2360:	00b50633          	add	a2,a0,a1
    2364:	5cc0aa23          	sw	a2,1492(ra)

00002368 <inst_407>:
    2368:	ffff5537          	lui	a0,0xffff5
    236c:	afd50513          	addi	a0,a0,-1283 # ffff4afd <immx+0x452e702d>
    2370:	0000b5b7          	lui	a1,0xb
    2374:	50458593          	addi	a1,a1,1284 # b504 <fromhost+0x5904>
    2378:	00b50633          	add	a2,a0,a1
    237c:	5cc0ac23          	sw	a2,1496(ra)

00002380 <inst_408>:
    2380:	ffff5537          	lui	a0,0xffff5
    2384:	afd50513          	addi	a0,a0,-1283 # ffff4afd <immx+0x452e702d>
    2388:	00200593          	li	a1,2
    238c:	00b50633          	add	a2,a0,a1
    2390:	5cc0ae23          	sw	a2,1500(ra)

00002394 <inst_409>:
    2394:	ffff5537          	lui	a0,0xffff5
    2398:	afd50513          	addi	a0,a0,-1283 # ffff4afd <immx+0x452e702d>
    239c:	555555b7          	lui	a1,0x55555
    23a0:	55458593          	addi	a1,a1,1364 # 55555554 <absimm+0x10263025>
    23a4:	00b50633          	add	a2,a0,a1
    23a8:	5ec0a023          	sw	a2,1504(ra)

000023ac <inst_410>:
    23ac:	ffff5537          	lui	a0,0xffff5
    23b0:	afd50513          	addi	a0,a0,-1283 # ffff4afd <immx+0x452e702d>
    23b4:	00000593          	li	a1,0
    23b8:	00b50633          	add	a2,a0,a1
    23bc:	5ec0a223          	sw	a2,1508(ra)

000023c0 <inst_411>:
    23c0:	ffff5537          	lui	a0,0xffff5
    23c4:	afd50513          	addi	a0,a0,-1283 # ffff4afd <immx+0x452e702d>
    23c8:	00400593          	li	a1,4
    23cc:	00b50633          	add	a2,a0,a1
    23d0:	5ec0a423          	sw	a2,1512(ra)

000023d4 <inst_412>:
    23d4:	ffff5537          	lui	a0,0xffff5
    23d8:	afd50513          	addi	a0,a0,-1283 # ffff4afd <immx+0x452e702d>
    23dc:	333335b7          	lui	a1,0x33333
    23e0:	33258593          	addi	a1,a1,818 # 33333332 <fromhost+0x3332d732>
    23e4:	00b50633          	add	a2,a0,a1
    23e8:	5ec0a623          	sw	a2,1516(ra)

000023ec <inst_413>:
    23ec:	ffff5537          	lui	a0,0xffff5
    23f0:	afd50513          	addi	a0,a0,-1283 # ffff4afd <immx+0x452e702d>
    23f4:	666665b7          	lui	a1,0x66666
    23f8:	66558593          	addi	a1,a1,1637 # 66666665 <absimm+0x21374136>
    23fc:	00b50633          	add	a2,a0,a1
    2400:	5ec0a823          	sw	a2,1520(ra)

00002404 <inst_414>:
    2404:	ffff5537          	lui	a0,0xffff5
    2408:	afd50513          	addi	a0,a0,-1283 # ffff4afd <immx+0x452e702d>
    240c:	0000b5b7          	lui	a1,0xb
    2410:	50358593          	addi	a1,a1,1283 # b503 <fromhost+0x5903>
    2414:	00b50633          	add	a2,a0,a1
    2418:	5ec0aa23          	sw	a2,1524(ra)

0000241c <inst_415>:
    241c:	ffff5537          	lui	a0,0xffff5
    2420:	afd50513          	addi	a0,a0,-1283 # ffff4afd <immx+0x452e702d>
    2424:	555555b7          	lui	a1,0x55555
    2428:	55658593          	addi	a1,a1,1366 # 55555556 <absimm+0x10263027>
    242c:	00b50633          	add	a2,a0,a1
    2430:	5ec0ac23          	sw	a2,1528(ra)

00002434 <inst_416>:
    2434:	ffff5537          	lui	a0,0xffff5
    2438:	afd50513          	addi	a0,a0,-1283 # ffff4afd <immx+0x452e702d>
    243c:	aaaab5b7          	lui	a1,0xaaaab
    2440:	aab58593          	addi	a1,a1,-1365 # aaaaaaab <absimm+0x657b857c>
    2444:	00b50633          	add	a2,a0,a1
    2448:	5ec0ae23          	sw	a2,1532(ra)

0000244c <inst_417>:
    244c:	ffff5537          	lui	a0,0xffff5
    2450:	afd50513          	addi	a0,a0,-1283 # ffff4afd <immx+0x452e702d>
    2454:	00600593          	li	a1,6
    2458:	00b50633          	add	a2,a0,a1
    245c:	60c0a023          	sw	a2,1536(ra)

00002460 <inst_418>:
    2460:	ffff5537          	lui	a0,0xffff5
    2464:	afd50513          	addi	a0,a0,-1283 # ffff4afd <immx+0x452e702d>
    2468:	333335b7          	lui	a1,0x33333
    246c:	33458593          	addi	a1,a1,820 # 33333334 <fromhost+0x3332d734>
    2470:	00b50633          	add	a2,a0,a1
    2474:	60c0a223          	sw	a2,1540(ra)

00002478 <inst_419>:
    2478:	ffff5537          	lui	a0,0xffff5
    247c:	afd50513          	addi	a0,a0,-1283 # ffff4afd <immx+0x452e702d>
    2480:	666665b7          	lui	a1,0x66666
    2484:	66758593          	addi	a1,a1,1639 # 66666667 <absimm+0x21374138>
    2488:	00b50633          	add	a2,a0,a1
    248c:	60c0a423          	sw	a2,1544(ra)

00002490 <inst_420>:
    2490:	ffff5537          	lui	a0,0xffff5
    2494:	afd50513          	addi	a0,a0,-1283 # ffff4afd <immx+0x452e702d>
    2498:	ffff55b7          	lui	a1,0xffff5
    249c:	afd58593          	addi	a1,a1,-1283 # ffff4afd <immx+0x452e702d>
    24a0:	00b50633          	add	a2,a0,a1
    24a4:	60c0a623          	sw	a2,1548(ra)

000024a8 <inst_421>:
    24a8:	ffff5537          	lui	a0,0xffff5
    24ac:	afd50513          	addi	a0,a0,-1283 # ffff4afd <immx+0x452e702d>
    24b0:	0000b5b7          	lui	a1,0xb
    24b4:	50558593          	addi	a1,a1,1285 # b505 <fromhost+0x5905>
    24b8:	00b50633          	add	a2,a0,a1
    24bc:	60c0a823          	sw	a2,1552(ra)

000024c0 <inst_422>:
    24c0:	0000b537          	lui	a0,0xb
    24c4:	50550513          	addi	a0,a0,1285 # b505 <fromhost+0x5905>
    24c8:	00300593          	li	a1,3
    24cc:	00b50633          	add	a2,a0,a1
    24d0:	60c0aa23          	sw	a2,1556(ra)

000024d4 <inst_423>:
    24d4:	0000b537          	lui	a0,0xb
    24d8:	50550513          	addi	a0,a0,1285 # b505 <fromhost+0x5905>
    24dc:	555555b7          	lui	a1,0x55555
    24e0:	55558593          	addi	a1,a1,1365 # 55555555 <absimm+0x10263026>
    24e4:	00b50633          	add	a2,a0,a1
    24e8:	60c0ac23          	sw	a2,1560(ra)

000024ec <inst_424>:
    24ec:	0000b537          	lui	a0,0xb
    24f0:	50550513          	addi	a0,a0,1285 # b505 <fromhost+0x5905>
    24f4:	aaaab5b7          	lui	a1,0xaaaab
    24f8:	aaa58593          	addi	a1,a1,-1366 # aaaaaaaa <absimm+0x657b857b>
    24fc:	00b50633          	add	a2,a0,a1
    2500:	60c0ae23          	sw	a2,1564(ra)

00002504 <inst_425>:
    2504:	0000b537          	lui	a0,0xb
    2508:	50550513          	addi	a0,a0,1285 # b505 <fromhost+0x5905>
    250c:	00500593          	li	a1,5
    2510:	00b50633          	add	a2,a0,a1
    2514:	62c0a023          	sw	a2,1568(ra)

00002518 <inst_426>:
    2518:	0000b537          	lui	a0,0xb
    251c:	50550513          	addi	a0,a0,1285 # b505 <fromhost+0x5905>
    2520:	333335b7          	lui	a1,0x33333
    2524:	33358593          	addi	a1,a1,819 # 33333333 <fromhost+0x3332d733>
    2528:	00b50633          	add	a2,a0,a1
    252c:	62c0a223          	sw	a2,1572(ra)

00002530 <inst_427>:
    2530:	0000b537          	lui	a0,0xb
    2534:	50550513          	addi	a0,a0,1285 # b505 <fromhost+0x5905>
    2538:	666665b7          	lui	a1,0x66666
    253c:	66658593          	addi	a1,a1,1638 # 66666666 <absimm+0x21374137>
    2540:	00b50633          	add	a2,a0,a1
    2544:	62c0a423          	sw	a2,1576(ra)

00002548 <inst_428>:
    2548:	0000b537          	lui	a0,0xb
    254c:	50550513          	addi	a0,a0,1285 # b505 <fromhost+0x5905>
    2550:	ffff55b7          	lui	a1,0xffff5
    2554:	afc58593          	addi	a1,a1,-1284 # ffff4afc <immx+0x452e702c>
    2558:	00b50633          	add	a2,a0,a1
    255c:	62c0a623          	sw	a2,1580(ra)

00002560 <inst_429>:
    2560:	0000b537          	lui	a0,0xb
    2564:	50550513          	addi	a0,a0,1285 # b505 <fromhost+0x5905>
    2568:	0000b5b7          	lui	a1,0xb
    256c:	50458593          	addi	a1,a1,1284 # b504 <fromhost+0x5904>
    2570:	00b50633          	add	a2,a0,a1
    2574:	62c0a823          	sw	a2,1584(ra)

00002578 <inst_430>:
    2578:	0000b537          	lui	a0,0xb
    257c:	50550513          	addi	a0,a0,1285 # b505 <fromhost+0x5905>
    2580:	00200593          	li	a1,2
    2584:	00b50633          	add	a2,a0,a1
    2588:	62c0aa23          	sw	a2,1588(ra)

0000258c <inst_431>:
    258c:	0000b537          	lui	a0,0xb
    2590:	50550513          	addi	a0,a0,1285 # b505 <fromhost+0x5905>
    2594:	555555b7          	lui	a1,0x55555
    2598:	55458593          	addi	a1,a1,1364 # 55555554 <absimm+0x10263025>
    259c:	00b50633          	add	a2,a0,a1
    25a0:	62c0ac23          	sw	a2,1592(ra)

000025a4 <inst_432>:
    25a4:	0000b537          	lui	a0,0xb
    25a8:	50550513          	addi	a0,a0,1285 # b505 <fromhost+0x5905>
    25ac:	00000593          	li	a1,0
    25b0:	00b50633          	add	a2,a0,a1
    25b4:	62c0ae23          	sw	a2,1596(ra)

000025b8 <inst_433>:
    25b8:	0000b537          	lui	a0,0xb
    25bc:	50550513          	addi	a0,a0,1285 # b505 <fromhost+0x5905>
    25c0:	00400593          	li	a1,4
    25c4:	00b50633          	add	a2,a0,a1
    25c8:	64c0a023          	sw	a2,1600(ra)

000025cc <inst_434>:
    25cc:	0000b537          	lui	a0,0xb
    25d0:	50550513          	addi	a0,a0,1285 # b505 <fromhost+0x5905>
    25d4:	333335b7          	lui	a1,0x33333
    25d8:	33258593          	addi	a1,a1,818 # 33333332 <fromhost+0x3332d732>
    25dc:	00b50633          	add	a2,a0,a1
    25e0:	64c0a223          	sw	a2,1604(ra)

000025e4 <inst_435>:
    25e4:	0000b537          	lui	a0,0xb
    25e8:	50550513          	addi	a0,a0,1285 # b505 <fromhost+0x5905>
    25ec:	666665b7          	lui	a1,0x66666
    25f0:	66558593          	addi	a1,a1,1637 # 66666665 <absimm+0x21374136>
    25f4:	00b50633          	add	a2,a0,a1
    25f8:	64c0a423          	sw	a2,1608(ra)

000025fc <inst_436>:
    25fc:	0000b537          	lui	a0,0xb
    2600:	50550513          	addi	a0,a0,1285 # b505 <fromhost+0x5905>
    2604:	0000b5b7          	lui	a1,0xb
    2608:	50358593          	addi	a1,a1,1283 # b503 <fromhost+0x5903>
    260c:	00b50633          	add	a2,a0,a1
    2610:	64c0a623          	sw	a2,1612(ra)

00002614 <inst_437>:
    2614:	0000b537          	lui	a0,0xb
    2618:	50550513          	addi	a0,a0,1285 # b505 <fromhost+0x5905>
    261c:	555555b7          	lui	a1,0x55555
    2620:	55658593          	addi	a1,a1,1366 # 55555556 <absimm+0x10263027>
    2624:	00b50633          	add	a2,a0,a1
    2628:	64c0a823          	sw	a2,1616(ra)

0000262c <inst_438>:
    262c:	0000b537          	lui	a0,0xb
    2630:	50550513          	addi	a0,a0,1285 # b505 <fromhost+0x5905>
    2634:	aaaab5b7          	lui	a1,0xaaaab
    2638:	aab58593          	addi	a1,a1,-1365 # aaaaaaab <absimm+0x657b857c>
    263c:	00b50633          	add	a2,a0,a1
    2640:	64c0aa23          	sw	a2,1620(ra)

00002644 <inst_439>:
    2644:	0000b537          	lui	a0,0xb
    2648:	50550513          	addi	a0,a0,1285 # b505 <fromhost+0x5905>
    264c:	00600593          	li	a1,6
    2650:	00b50633          	add	a2,a0,a1
    2654:	64c0ac23          	sw	a2,1624(ra)

00002658 <inst_440>:
    2658:	0000b537          	lui	a0,0xb
    265c:	50550513          	addi	a0,a0,1285 # b505 <fromhost+0x5905>
    2660:	333335b7          	lui	a1,0x33333
    2664:	33458593          	addi	a1,a1,820 # 33333334 <fromhost+0x3332d734>
    2668:	00b50633          	add	a2,a0,a1
    266c:	64c0ae23          	sw	a2,1628(ra)

00002670 <inst_441>:
    2670:	0000b537          	lui	a0,0xb
    2674:	50550513          	addi	a0,a0,1285 # b505 <fromhost+0x5905>
    2678:	666665b7          	lui	a1,0x66666
    267c:	66758593          	addi	a1,a1,1639 # 66666667 <absimm+0x21374138>
    2680:	00b50633          	add	a2,a0,a1
    2684:	66c0a023          	sw	a2,1632(ra)

00002688 <inst_442>:
    2688:	0000b537          	lui	a0,0xb
    268c:	50550513          	addi	a0,a0,1285 # b505 <fromhost+0x5905>
    2690:	ffff55b7          	lui	a1,0xffff5
    2694:	afd58593          	addi	a1,a1,-1283 # ffff4afd <immx+0x452e702d>
    2698:	00b50633          	add	a2,a0,a1
    269c:	66c0a223          	sw	a2,1636(ra)

000026a0 <inst_443>:
    26a0:	0000b537          	lui	a0,0xb
    26a4:	50550513          	addi	a0,a0,1285 # b505 <fromhost+0x5905>
    26a8:	0000b5b7          	lui	a1,0xb
    26ac:	50558593          	addi	a1,a1,1285 # b505 <fromhost+0x5905>
    26b0:	00b50633          	add	a2,a0,a1
    26b4:	66c0a423          	sw	a2,1640(ra)

000026b8 <inst_444>:
    26b8:	00000513          	li	a0,0
    26bc:	00200593          	li	a1,2
    26c0:	00b50633          	add	a2,a0,a1
    26c4:	66c0a623          	sw	a2,1644(ra)

000026c8 <inst_445>:
    26c8:	00000513          	li	a0,0
    26cc:	555555b7          	lui	a1,0x55555
    26d0:	55458593          	addi	a1,a1,1364 # 55555554 <absimm+0x10263025>
    26d4:	00b50633          	add	a2,a0,a1
    26d8:	66c0a823          	sw	a2,1648(ra)

000026dc <inst_446>:
    26dc:	00000513          	li	a0,0
    26e0:	00000593          	li	a1,0
    26e4:	00b50633          	add	a2,a0,a1
    26e8:	66c0aa23          	sw	a2,1652(ra)

000026ec <inst_447>:
    26ec:	00000513          	li	a0,0
    26f0:	00400593          	li	a1,4
    26f4:	00b50633          	add	a2,a0,a1
    26f8:	66c0ac23          	sw	a2,1656(ra)

000026fc <inst_448>:
    26fc:	00000513          	li	a0,0
    2700:	333335b7          	lui	a1,0x33333
    2704:	33258593          	addi	a1,a1,818 # 33333332 <fromhost+0x3332d732>
    2708:	00b50633          	add	a2,a0,a1
    270c:	66c0ae23          	sw	a2,1660(ra)

00002710 <inst_449>:
    2710:	00000513          	li	a0,0
    2714:	666665b7          	lui	a1,0x66666
    2718:	66558593          	addi	a1,a1,1637 # 66666665 <absimm+0x21374136>
    271c:	00b50633          	add	a2,a0,a1
    2720:	68c0a023          	sw	a2,1664(ra)

00002724 <inst_450>:
    2724:	00000513          	li	a0,0
    2728:	0000b5b7          	lui	a1,0xb
    272c:	50358593          	addi	a1,a1,1283 # b503 <fromhost+0x5903>
    2730:	00b50633          	add	a2,a0,a1
    2734:	68c0a223          	sw	a2,1668(ra)

00002738 <inst_451>:
    2738:	00000513          	li	a0,0
    273c:	555555b7          	lui	a1,0x55555
    2740:	55658593          	addi	a1,a1,1366 # 55555556 <absimm+0x10263027>
    2744:	00b50633          	add	a2,a0,a1
    2748:	68c0a423          	sw	a2,1672(ra)

0000274c <inst_452>:
    274c:	00000513          	li	a0,0
    2750:	aaaab5b7          	lui	a1,0xaaaab
    2754:	aab58593          	addi	a1,a1,-1365 # aaaaaaab <absimm+0x657b857c>
    2758:	00b50633          	add	a2,a0,a1
    275c:	68c0a623          	sw	a2,1676(ra)

00002760 <inst_453>:
    2760:	00000513          	li	a0,0
    2764:	00600593          	li	a1,6
    2768:	00b50633          	add	a2,a0,a1
    276c:	68c0a823          	sw	a2,1680(ra)

00002770 <inst_454>:
    2770:	00000513          	li	a0,0
    2774:	333335b7          	lui	a1,0x33333
    2778:	33458593          	addi	a1,a1,820 # 33333334 <fromhost+0x3332d734>
    277c:	00b50633          	add	a2,a0,a1
    2780:	68c0aa23          	sw	a2,1684(ra)

00002784 <inst_455>:
    2784:	00000513          	li	a0,0
    2788:	666665b7          	lui	a1,0x66666
    278c:	66758593          	addi	a1,a1,1639 # 66666667 <absimm+0x21374138>
    2790:	00b50633          	add	a2,a0,a1
    2794:	68c0ac23          	sw	a2,1688(ra)

00002798 <inst_456>:
    2798:	00000513          	li	a0,0
    279c:	ffff55b7          	lui	a1,0xffff5
    27a0:	afd58593          	addi	a1,a1,-1283 # ffff4afd <immx+0x452e702d>
    27a4:	00b50633          	add	a2,a0,a1
    27a8:	68c0ae23          	sw	a2,1692(ra)

000027ac <inst_457>:
    27ac:	00000513          	li	a0,0
    27b0:	0000b5b7          	lui	a1,0xb
    27b4:	50558593          	addi	a1,a1,1285 # b505 <fromhost+0x5905>
    27b8:	00b50633          	add	a2,a0,a1
    27bc:	6ac0a023          	sw	a2,1696(ra)

000027c0 <inst_458>:
    27c0:	00400513          	li	a0,4
    27c4:	00300593          	li	a1,3
    27c8:	00b50633          	add	a2,a0,a1
    27cc:	6ac0a223          	sw	a2,1700(ra)

000027d0 <inst_459>:
    27d0:	00400513          	li	a0,4
    27d4:	555555b7          	lui	a1,0x55555
    27d8:	55558593          	addi	a1,a1,1365 # 55555555 <absimm+0x10263026>
    27dc:	00b50633          	add	a2,a0,a1
    27e0:	6ac0a423          	sw	a2,1704(ra)

000027e4 <inst_460>:
    27e4:	00400513          	li	a0,4
    27e8:	aaaab5b7          	lui	a1,0xaaaab
    27ec:	aaa58593          	addi	a1,a1,-1366 # aaaaaaaa <absimm+0x657b857b>
    27f0:	00b50633          	add	a2,a0,a1
    27f4:	6ac0a623          	sw	a2,1708(ra)

000027f8 <inst_461>:
    27f8:	00400513          	li	a0,4
    27fc:	00500593          	li	a1,5
    2800:	00b50633          	add	a2,a0,a1
    2804:	6ac0a823          	sw	a2,1712(ra)

00002808 <inst_462>:
    2808:	00400513          	li	a0,4
    280c:	333335b7          	lui	a1,0x33333
    2810:	33358593          	addi	a1,a1,819 # 33333333 <fromhost+0x3332d733>
    2814:	00b50633          	add	a2,a0,a1
    2818:	6ac0aa23          	sw	a2,1716(ra)

0000281c <inst_463>:
    281c:	00400513          	li	a0,4
    2820:	666665b7          	lui	a1,0x66666
    2824:	66658593          	addi	a1,a1,1638 # 66666666 <absimm+0x21374137>
    2828:	00b50633          	add	a2,a0,a1
    282c:	6ac0ac23          	sw	a2,1720(ra)

00002830 <inst_464>:
    2830:	00400513          	li	a0,4
    2834:	ffff55b7          	lui	a1,0xffff5
    2838:	afc58593          	addi	a1,a1,-1284 # ffff4afc <immx+0x452e702c>
    283c:	00b50633          	add	a2,a0,a1
    2840:	6ac0ae23          	sw	a2,1724(ra)

00002844 <inst_465>:
    2844:	00400513          	li	a0,4
    2848:	0000b5b7          	lui	a1,0xb
    284c:	50458593          	addi	a1,a1,1284 # b504 <fromhost+0x5904>
    2850:	00b50633          	add	a2,a0,a1
    2854:	6cc0a023          	sw	a2,1728(ra)

00002858 <inst_466>:
    2858:	00400513          	li	a0,4
    285c:	00200593          	li	a1,2
    2860:	00b50633          	add	a2,a0,a1
    2864:	6cc0a223          	sw	a2,1732(ra)

00002868 <inst_467>:
    2868:	00400513          	li	a0,4
    286c:	555555b7          	lui	a1,0x55555
    2870:	55458593          	addi	a1,a1,1364 # 55555554 <absimm+0x10263025>
    2874:	00b50633          	add	a2,a0,a1
    2878:	6cc0a423          	sw	a2,1736(ra)

0000287c <inst_468>:
    287c:	00400513          	li	a0,4
    2880:	00000593          	li	a1,0
    2884:	00b50633          	add	a2,a0,a1
    2888:	6cc0a623          	sw	a2,1740(ra)

0000288c <inst_469>:
    288c:	00400513          	li	a0,4
    2890:	00400593          	li	a1,4
    2894:	00b50633          	add	a2,a0,a1
    2898:	6cc0a823          	sw	a2,1744(ra)

0000289c <inst_470>:
    289c:	00400513          	li	a0,4
    28a0:	333335b7          	lui	a1,0x33333
    28a4:	33258593          	addi	a1,a1,818 # 33333332 <fromhost+0x3332d732>
    28a8:	00b50633          	add	a2,a0,a1
    28ac:	6cc0aa23          	sw	a2,1748(ra)

000028b0 <inst_471>:
    28b0:	00400513          	li	a0,4
    28b4:	666665b7          	lui	a1,0x66666
    28b8:	66558593          	addi	a1,a1,1637 # 66666665 <absimm+0x21374136>
    28bc:	00b50633          	add	a2,a0,a1
    28c0:	6cc0ac23          	sw	a2,1752(ra)

000028c4 <inst_472>:
    28c4:	00400513          	li	a0,4
    28c8:	0000b5b7          	lui	a1,0xb
    28cc:	50358593          	addi	a1,a1,1283 # b503 <fromhost+0x5903>
    28d0:	00b50633          	add	a2,a0,a1
    28d4:	6cc0ae23          	sw	a2,1756(ra)

000028d8 <inst_473>:
    28d8:	00400513          	li	a0,4
    28dc:	555555b7          	lui	a1,0x55555
    28e0:	55658593          	addi	a1,a1,1366 # 55555556 <absimm+0x10263027>
    28e4:	00b50633          	add	a2,a0,a1
    28e8:	6ec0a023          	sw	a2,1760(ra)

000028ec <inst_474>:
    28ec:	00400513          	li	a0,4
    28f0:	aaaab5b7          	lui	a1,0xaaaab
    28f4:	aab58593          	addi	a1,a1,-1365 # aaaaaaab <absimm+0x657b857c>
    28f8:	00b50633          	add	a2,a0,a1
    28fc:	6ec0a223          	sw	a2,1764(ra)

00002900 <inst_475>:
    2900:	00400513          	li	a0,4
    2904:	00600593          	li	a1,6
    2908:	00b50633          	add	a2,a0,a1
    290c:	6ec0a423          	sw	a2,1768(ra)

00002910 <inst_476>:
    2910:	00400513          	li	a0,4
    2914:	333335b7          	lui	a1,0x33333
    2918:	33458593          	addi	a1,a1,820 # 33333334 <fromhost+0x3332d734>
    291c:	00b50633          	add	a2,a0,a1
    2920:	6ec0a623          	sw	a2,1772(ra)

00002924 <inst_477>:
    2924:	00400513          	li	a0,4
    2928:	666665b7          	lui	a1,0x66666
    292c:	66758593          	addi	a1,a1,1639 # 66666667 <absimm+0x21374138>
    2930:	00b50633          	add	a2,a0,a1
    2934:	6ec0a823          	sw	a2,1776(ra)

00002938 <inst_478>:
    2938:	00400513          	li	a0,4
    293c:	ffff55b7          	lui	a1,0xffff5
    2940:	afd58593          	addi	a1,a1,-1283 # ffff4afd <immx+0x452e702d>
    2944:	00b50633          	add	a2,a0,a1
    2948:	6ec0aa23          	sw	a2,1780(ra)

0000294c <inst_479>:
    294c:	00400513          	li	a0,4
    2950:	0000b5b7          	lui	a1,0xb
    2954:	50558593          	addi	a1,a1,1285 # b505 <fromhost+0x5905>
    2958:	00b50633          	add	a2,a0,a1
    295c:	6ec0ac23          	sw	a2,1784(ra)

00002960 <inst_480>:
    2960:	33333537          	lui	a0,0x33333
    2964:	33250513          	addi	a0,a0,818 # 33333332 <fromhost+0x3332d732>
    2968:	00300593          	li	a1,3
    296c:	00b50633          	add	a2,a0,a1
    2970:	6ec0ae23          	sw	a2,1788(ra)

00002974 <inst_481>:
    2974:	33333537          	lui	a0,0x33333
    2978:	33250513          	addi	a0,a0,818 # 33333332 <fromhost+0x3332d732>
    297c:	555555b7          	lui	a1,0x55555
    2980:	55558593          	addi	a1,a1,1365 # 55555555 <absimm+0x10263026>
    2984:	00b50633          	add	a2,a0,a1
    2988:	70c0a023          	sw	a2,1792(ra)

0000298c <inst_482>:
    298c:	33333537          	lui	a0,0x33333
    2990:	33250513          	addi	a0,a0,818 # 33333332 <fromhost+0x3332d732>
    2994:	aaaab5b7          	lui	a1,0xaaaab
    2998:	aaa58593          	addi	a1,a1,-1366 # aaaaaaaa <absimm+0x657b857b>
    299c:	00b50633          	add	a2,a0,a1
    29a0:	70c0a223          	sw	a2,1796(ra)

000029a4 <inst_483>:
    29a4:	33333537          	lui	a0,0x33333
    29a8:	33250513          	addi	a0,a0,818 # 33333332 <fromhost+0x3332d732>
    29ac:	00500593          	li	a1,5
    29b0:	00b50633          	add	a2,a0,a1
    29b4:	70c0a423          	sw	a2,1800(ra)

000029b8 <inst_484>:
    29b8:	33333537          	lui	a0,0x33333
    29bc:	33250513          	addi	a0,a0,818 # 33333332 <fromhost+0x3332d732>
    29c0:	333335b7          	lui	a1,0x33333
    29c4:	33358593          	addi	a1,a1,819 # 33333333 <fromhost+0x3332d733>
    29c8:	00b50633          	add	a2,a0,a1
    29cc:	70c0a623          	sw	a2,1804(ra)

000029d0 <inst_485>:
    29d0:	33333537          	lui	a0,0x33333
    29d4:	33250513          	addi	a0,a0,818 # 33333332 <fromhost+0x3332d732>
    29d8:	666665b7          	lui	a1,0x66666
    29dc:	66658593          	addi	a1,a1,1638 # 66666666 <absimm+0x21374137>
    29e0:	00b50633          	add	a2,a0,a1
    29e4:	70c0a823          	sw	a2,1808(ra)

000029e8 <inst_486>:
    29e8:	33333537          	lui	a0,0x33333
    29ec:	33250513          	addi	a0,a0,818 # 33333332 <fromhost+0x3332d732>
    29f0:	ffff55b7          	lui	a1,0xffff5
    29f4:	afc58593          	addi	a1,a1,-1284 # ffff4afc <immx+0x452e702c>
    29f8:	00b50633          	add	a2,a0,a1
    29fc:	70c0aa23          	sw	a2,1812(ra)

00002a00 <inst_487>:
    2a00:	33333537          	lui	a0,0x33333
    2a04:	33250513          	addi	a0,a0,818 # 33333332 <fromhost+0x3332d732>
    2a08:	0000b5b7          	lui	a1,0xb
    2a0c:	50458593          	addi	a1,a1,1284 # b504 <fromhost+0x5904>
    2a10:	00b50633          	add	a2,a0,a1
    2a14:	70c0ac23          	sw	a2,1816(ra)

00002a18 <inst_488>:
    2a18:	33333537          	lui	a0,0x33333
    2a1c:	33250513          	addi	a0,a0,818 # 33333332 <fromhost+0x3332d732>
    2a20:	00200593          	li	a1,2
    2a24:	00b50633          	add	a2,a0,a1
    2a28:	70c0ae23          	sw	a2,1820(ra)

00002a2c <inst_489>:
    2a2c:	33333537          	lui	a0,0x33333
    2a30:	33250513          	addi	a0,a0,818 # 33333332 <fromhost+0x3332d732>
    2a34:	555555b7          	lui	a1,0x55555
    2a38:	55458593          	addi	a1,a1,1364 # 55555554 <absimm+0x10263025>
    2a3c:	00b50633          	add	a2,a0,a1
    2a40:	72c0a023          	sw	a2,1824(ra)

00002a44 <inst_490>:
    2a44:	33333537          	lui	a0,0x33333
    2a48:	33250513          	addi	a0,a0,818 # 33333332 <fromhost+0x3332d732>
    2a4c:	00000593          	li	a1,0
    2a50:	00b50633          	add	a2,a0,a1
    2a54:	72c0a223          	sw	a2,1828(ra)

00002a58 <inst_491>:
    2a58:	33333537          	lui	a0,0x33333
    2a5c:	33250513          	addi	a0,a0,818 # 33333332 <fromhost+0x3332d732>
    2a60:	00400593          	li	a1,4
    2a64:	00b50633          	add	a2,a0,a1
    2a68:	72c0a423          	sw	a2,1832(ra)

00002a6c <inst_492>:
    2a6c:	33333537          	lui	a0,0x33333
    2a70:	33250513          	addi	a0,a0,818 # 33333332 <fromhost+0x3332d732>
    2a74:	333335b7          	lui	a1,0x33333
    2a78:	33258593          	addi	a1,a1,818 # 33333332 <fromhost+0x3332d732>
    2a7c:	00b50633          	add	a2,a0,a1
    2a80:	72c0a623          	sw	a2,1836(ra)

00002a84 <inst_493>:
    2a84:	33333537          	lui	a0,0x33333
    2a88:	33250513          	addi	a0,a0,818 # 33333332 <fromhost+0x3332d732>
    2a8c:	666665b7          	lui	a1,0x66666
    2a90:	66558593          	addi	a1,a1,1637 # 66666665 <absimm+0x21374136>
    2a94:	00b50633          	add	a2,a0,a1
    2a98:	72c0a823          	sw	a2,1840(ra)

00002a9c <inst_494>:
    2a9c:	33333537          	lui	a0,0x33333
    2aa0:	33250513          	addi	a0,a0,818 # 33333332 <fromhost+0x3332d732>
    2aa4:	0000b5b7          	lui	a1,0xb
    2aa8:	50358593          	addi	a1,a1,1283 # b503 <fromhost+0x5903>
    2aac:	00b50633          	add	a2,a0,a1
    2ab0:	72c0aa23          	sw	a2,1844(ra)

00002ab4 <inst_495>:
    2ab4:	33333537          	lui	a0,0x33333
    2ab8:	33250513          	addi	a0,a0,818 # 33333332 <fromhost+0x3332d732>
    2abc:	555555b7          	lui	a1,0x55555
    2ac0:	55658593          	addi	a1,a1,1366 # 55555556 <absimm+0x10263027>
    2ac4:	00b50633          	add	a2,a0,a1
    2ac8:	72c0ac23          	sw	a2,1848(ra)

00002acc <inst_496>:
    2acc:	33333537          	lui	a0,0x33333
    2ad0:	33250513          	addi	a0,a0,818 # 33333332 <fromhost+0x3332d732>
    2ad4:	aaaab5b7          	lui	a1,0xaaaab
    2ad8:	aab58593          	addi	a1,a1,-1365 # aaaaaaab <absimm+0x657b857c>
    2adc:	00b50633          	add	a2,a0,a1
    2ae0:	72c0ae23          	sw	a2,1852(ra)

00002ae4 <inst_497>:
    2ae4:	33333537          	lui	a0,0x33333
    2ae8:	33250513          	addi	a0,a0,818 # 33333332 <fromhost+0x3332d732>
    2aec:	00600593          	li	a1,6
    2af0:	00b50633          	add	a2,a0,a1
    2af4:	74c0a023          	sw	a2,1856(ra)

00002af8 <inst_498>:
    2af8:	33333537          	lui	a0,0x33333
    2afc:	33250513          	addi	a0,a0,818 # 33333332 <fromhost+0x3332d732>
    2b00:	333335b7          	lui	a1,0x33333
    2b04:	33458593          	addi	a1,a1,820 # 33333334 <fromhost+0x3332d734>
    2b08:	00b50633          	add	a2,a0,a1
    2b0c:	74c0a223          	sw	a2,1860(ra)

00002b10 <inst_499>:
    2b10:	33333537          	lui	a0,0x33333
    2b14:	33250513          	addi	a0,a0,818 # 33333332 <fromhost+0x3332d732>
    2b18:	666665b7          	lui	a1,0x66666
    2b1c:	66758593          	addi	a1,a1,1639 # 66666667 <absimm+0x21374138>
    2b20:	00b50633          	add	a2,a0,a1
    2b24:	74c0a423          	sw	a2,1864(ra)

00002b28 <inst_500>:
    2b28:	33333537          	lui	a0,0x33333
    2b2c:	33250513          	addi	a0,a0,818 # 33333332 <fromhost+0x3332d732>
    2b30:	ffff55b7          	lui	a1,0xffff5
    2b34:	afd58593          	addi	a1,a1,-1283 # ffff4afd <immx+0x452e702d>
    2b38:	00b50633          	add	a2,a0,a1
    2b3c:	74c0a623          	sw	a2,1868(ra)

00002b40 <inst_501>:
    2b40:	33333537          	lui	a0,0x33333
    2b44:	33250513          	addi	a0,a0,818 # 33333332 <fromhost+0x3332d732>
    2b48:	0000b5b7          	lui	a1,0xb
    2b4c:	50558593          	addi	a1,a1,1285 # b505 <fromhost+0x5905>
    2b50:	00b50633          	add	a2,a0,a1
    2b54:	74c0a823          	sw	a2,1872(ra)

00002b58 <inst_502>:
    2b58:	66666537          	lui	a0,0x66666
    2b5c:	66550513          	addi	a0,a0,1637 # 66666665 <absimm+0x21374136>
    2b60:	00300593          	li	a1,3
    2b64:	00b50633          	add	a2,a0,a1
    2b68:	74c0aa23          	sw	a2,1876(ra)

00002b6c <inst_503>:
    2b6c:	66666537          	lui	a0,0x66666
    2b70:	66550513          	addi	a0,a0,1637 # 66666665 <absimm+0x21374136>
    2b74:	555555b7          	lui	a1,0x55555
    2b78:	55558593          	addi	a1,a1,1365 # 55555555 <absimm+0x10263026>
    2b7c:	00b50633          	add	a2,a0,a1
    2b80:	74c0ac23          	sw	a2,1880(ra)

00002b84 <inst_504>:
    2b84:	66666537          	lui	a0,0x66666
    2b88:	66550513          	addi	a0,a0,1637 # 66666665 <absimm+0x21374136>
    2b8c:	aaaab5b7          	lui	a1,0xaaaab
    2b90:	aaa58593          	addi	a1,a1,-1366 # aaaaaaaa <absimm+0x657b857b>
    2b94:	00b50633          	add	a2,a0,a1
    2b98:	74c0ae23          	sw	a2,1884(ra)

00002b9c <inst_505>:
    2b9c:	66666537          	lui	a0,0x66666
    2ba0:	66550513          	addi	a0,a0,1637 # 66666665 <absimm+0x21374136>
    2ba4:	00500593          	li	a1,5
    2ba8:	00b50633          	add	a2,a0,a1
    2bac:	76c0a023          	sw	a2,1888(ra)

00002bb0 <inst_506>:
    2bb0:	66666537          	lui	a0,0x66666
    2bb4:	66550513          	addi	a0,a0,1637 # 66666665 <absimm+0x21374136>
    2bb8:	333335b7          	lui	a1,0x33333
    2bbc:	33358593          	addi	a1,a1,819 # 33333333 <fromhost+0x3332d733>
    2bc0:	00b50633          	add	a2,a0,a1
    2bc4:	76c0a223          	sw	a2,1892(ra)

00002bc8 <inst_507>:
    2bc8:	66666537          	lui	a0,0x66666
    2bcc:	66550513          	addi	a0,a0,1637 # 66666665 <absimm+0x21374136>
    2bd0:	666665b7          	lui	a1,0x66666
    2bd4:	66658593          	addi	a1,a1,1638 # 66666666 <absimm+0x21374137>
    2bd8:	00b50633          	add	a2,a0,a1
    2bdc:	76c0a423          	sw	a2,1896(ra)

00002be0 <inst_508>:
    2be0:	66666537          	lui	a0,0x66666
    2be4:	66550513          	addi	a0,a0,1637 # 66666665 <absimm+0x21374136>
    2be8:	ffff55b7          	lui	a1,0xffff5
    2bec:	afc58593          	addi	a1,a1,-1284 # ffff4afc <immx+0x452e702c>
    2bf0:	00b50633          	add	a2,a0,a1
    2bf4:	76c0a623          	sw	a2,1900(ra)

00002bf8 <inst_509>:
    2bf8:	66666537          	lui	a0,0x66666
    2bfc:	66550513          	addi	a0,a0,1637 # 66666665 <absimm+0x21374136>
    2c00:	0000b5b7          	lui	a1,0xb
    2c04:	50458593          	addi	a1,a1,1284 # b504 <fromhost+0x5904>
    2c08:	00b50633          	add	a2,a0,a1
    2c0c:	76c0a823          	sw	a2,1904(ra)

00002c10 <inst_510>:
    2c10:	66666537          	lui	a0,0x66666
    2c14:	66550513          	addi	a0,a0,1637 # 66666665 <absimm+0x21374136>
    2c18:	00200593          	li	a1,2
    2c1c:	00b50633          	add	a2,a0,a1
    2c20:	76c0aa23          	sw	a2,1908(ra)

00002c24 <inst_511>:
    2c24:	66666537          	lui	a0,0x66666
    2c28:	66550513          	addi	a0,a0,1637 # 66666665 <absimm+0x21374136>
    2c2c:	555555b7          	lui	a1,0x55555
    2c30:	55458593          	addi	a1,a1,1364 # 55555554 <absimm+0x10263025>
    2c34:	00b50633          	add	a2,a0,a1
    2c38:	76c0ac23          	sw	a2,1912(ra)

00002c3c <inst_512>:
    2c3c:	66666537          	lui	a0,0x66666
    2c40:	66550513          	addi	a0,a0,1637 # 66666665 <absimm+0x21374136>
    2c44:	00000593          	li	a1,0
    2c48:	00b50633          	add	a2,a0,a1
    2c4c:	76c0ae23          	sw	a2,1916(ra)

00002c50 <inst_513>:
    2c50:	66666537          	lui	a0,0x66666
    2c54:	66550513          	addi	a0,a0,1637 # 66666665 <absimm+0x21374136>
    2c58:	00400593          	li	a1,4
    2c5c:	00b50633          	add	a2,a0,a1
    2c60:	78c0a023          	sw	a2,1920(ra)

00002c64 <inst_514>:
    2c64:	66666537          	lui	a0,0x66666
    2c68:	66550513          	addi	a0,a0,1637 # 66666665 <absimm+0x21374136>
    2c6c:	333335b7          	lui	a1,0x33333
    2c70:	33258593          	addi	a1,a1,818 # 33333332 <fromhost+0x3332d732>
    2c74:	00b50633          	add	a2,a0,a1
    2c78:	78c0a223          	sw	a2,1924(ra)

00002c7c <inst_515>:
    2c7c:	66666537          	lui	a0,0x66666
    2c80:	66550513          	addi	a0,a0,1637 # 66666665 <absimm+0x21374136>
    2c84:	666665b7          	lui	a1,0x66666
    2c88:	66558593          	addi	a1,a1,1637 # 66666665 <absimm+0x21374136>
    2c8c:	00b50633          	add	a2,a0,a1
    2c90:	78c0a423          	sw	a2,1928(ra)

00002c94 <inst_516>:
    2c94:	66666537          	lui	a0,0x66666
    2c98:	66550513          	addi	a0,a0,1637 # 66666665 <absimm+0x21374136>
    2c9c:	0000b5b7          	lui	a1,0xb
    2ca0:	50358593          	addi	a1,a1,1283 # b503 <fromhost+0x5903>
    2ca4:	00b50633          	add	a2,a0,a1
    2ca8:	78c0a623          	sw	a2,1932(ra)

00002cac <inst_517>:
    2cac:	66666537          	lui	a0,0x66666
    2cb0:	66550513          	addi	a0,a0,1637 # 66666665 <absimm+0x21374136>
    2cb4:	555555b7          	lui	a1,0x55555
    2cb8:	55658593          	addi	a1,a1,1366 # 55555556 <absimm+0x10263027>
    2cbc:	00b50633          	add	a2,a0,a1
    2cc0:	78c0a823          	sw	a2,1936(ra)

00002cc4 <inst_518>:
    2cc4:	66666537          	lui	a0,0x66666
    2cc8:	66550513          	addi	a0,a0,1637 # 66666665 <absimm+0x21374136>
    2ccc:	aaaab5b7          	lui	a1,0xaaaab
    2cd0:	aab58593          	addi	a1,a1,-1365 # aaaaaaab <absimm+0x657b857c>
    2cd4:	00b50633          	add	a2,a0,a1
    2cd8:	78c0aa23          	sw	a2,1940(ra)

00002cdc <inst_519>:
    2cdc:	66666537          	lui	a0,0x66666
    2ce0:	66550513          	addi	a0,a0,1637 # 66666665 <absimm+0x21374136>
    2ce4:	00600593          	li	a1,6
    2ce8:	00b50633          	add	a2,a0,a1
    2cec:	78c0ac23          	sw	a2,1944(ra)

00002cf0 <inst_520>:
    2cf0:	66666537          	lui	a0,0x66666
    2cf4:	66550513          	addi	a0,a0,1637 # 66666665 <absimm+0x21374136>
    2cf8:	333335b7          	lui	a1,0x33333
    2cfc:	33458593          	addi	a1,a1,820 # 33333334 <fromhost+0x3332d734>
    2d00:	00b50633          	add	a2,a0,a1
    2d04:	78c0ae23          	sw	a2,1948(ra)

00002d08 <inst_521>:
    2d08:	66666537          	lui	a0,0x66666
    2d0c:	66550513          	addi	a0,a0,1637 # 66666665 <absimm+0x21374136>
    2d10:	666665b7          	lui	a1,0x66666
    2d14:	66758593          	addi	a1,a1,1639 # 66666667 <absimm+0x21374138>
    2d18:	00b50633          	add	a2,a0,a1
    2d1c:	7ac0a023          	sw	a2,1952(ra)

00002d20 <inst_522>:
    2d20:	66666537          	lui	a0,0x66666
    2d24:	66550513          	addi	a0,a0,1637 # 66666665 <absimm+0x21374136>
    2d28:	ffff55b7          	lui	a1,0xffff5
    2d2c:	afd58593          	addi	a1,a1,-1283 # ffff4afd <immx+0x452e702d>
    2d30:	00b50633          	add	a2,a0,a1
    2d34:	7ac0a223          	sw	a2,1956(ra)

00002d38 <inst_523>:
    2d38:	66666537          	lui	a0,0x66666
    2d3c:	66550513          	addi	a0,a0,1637 # 66666665 <absimm+0x21374136>
    2d40:	0000b5b7          	lui	a1,0xb
    2d44:	50558593          	addi	a1,a1,1285 # b505 <fromhost+0x5905>
    2d48:	00b50633          	add	a2,a0,a1
    2d4c:	7ac0a423          	sw	a2,1960(ra)

00002d50 <inst_524>:
    2d50:	0000b537          	lui	a0,0xb
    2d54:	50350513          	addi	a0,a0,1283 # b503 <fromhost+0x5903>
    2d58:	00300593          	li	a1,3
    2d5c:	00b50633          	add	a2,a0,a1
    2d60:	7ac0a623          	sw	a2,1964(ra)

00002d64 <inst_525>:
    2d64:	0000b537          	lui	a0,0xb
    2d68:	50350513          	addi	a0,a0,1283 # b503 <fromhost+0x5903>
    2d6c:	555555b7          	lui	a1,0x55555
    2d70:	55558593          	addi	a1,a1,1365 # 55555555 <absimm+0x10263026>
    2d74:	00b50633          	add	a2,a0,a1
    2d78:	7ac0a823          	sw	a2,1968(ra)

00002d7c <inst_526>:
    2d7c:	0000b537          	lui	a0,0xb
    2d80:	50350513          	addi	a0,a0,1283 # b503 <fromhost+0x5903>
    2d84:	aaaab5b7          	lui	a1,0xaaaab
    2d88:	aaa58593          	addi	a1,a1,-1366 # aaaaaaaa <absimm+0x657b857b>
    2d8c:	00b50633          	add	a2,a0,a1
    2d90:	7ac0aa23          	sw	a2,1972(ra)

00002d94 <inst_527>:
    2d94:	0000b537          	lui	a0,0xb
    2d98:	50350513          	addi	a0,a0,1283 # b503 <fromhost+0x5903>
    2d9c:	00500593          	li	a1,5
    2da0:	00b50633          	add	a2,a0,a1
    2da4:	7ac0ac23          	sw	a2,1976(ra)

00002da8 <inst_528>:
    2da8:	0000b537          	lui	a0,0xb
    2dac:	50350513          	addi	a0,a0,1283 # b503 <fromhost+0x5903>
    2db0:	333335b7          	lui	a1,0x33333
    2db4:	33358593          	addi	a1,a1,819 # 33333333 <fromhost+0x3332d733>
    2db8:	00b50633          	add	a2,a0,a1
    2dbc:	7ac0ae23          	sw	a2,1980(ra)

00002dc0 <inst_529>:
    2dc0:	0000b537          	lui	a0,0xb
    2dc4:	50350513          	addi	a0,a0,1283 # b503 <fromhost+0x5903>
    2dc8:	666665b7          	lui	a1,0x66666
    2dcc:	66658593          	addi	a1,a1,1638 # 66666666 <absimm+0x21374137>
    2dd0:	00b50633          	add	a2,a0,a1
    2dd4:	7cc0a023          	sw	a2,1984(ra)

00002dd8 <inst_530>:
    2dd8:	0000b537          	lui	a0,0xb
    2ddc:	50350513          	addi	a0,a0,1283 # b503 <fromhost+0x5903>
    2de0:	ffff55b7          	lui	a1,0xffff5
    2de4:	afc58593          	addi	a1,a1,-1284 # ffff4afc <immx+0x452e702c>
    2de8:	00b50633          	add	a2,a0,a1
    2dec:	7cc0a223          	sw	a2,1988(ra)

00002df0 <inst_531>:
    2df0:	0000b537          	lui	a0,0xb
    2df4:	50350513          	addi	a0,a0,1283 # b503 <fromhost+0x5903>
    2df8:	0000b5b7          	lui	a1,0xb
    2dfc:	50458593          	addi	a1,a1,1284 # b504 <fromhost+0x5904>
    2e00:	00b50633          	add	a2,a0,a1
    2e04:	7cc0a423          	sw	a2,1992(ra)

00002e08 <inst_532>:
    2e08:	0000b537          	lui	a0,0xb
    2e0c:	50350513          	addi	a0,a0,1283 # b503 <fromhost+0x5903>
    2e10:	00200593          	li	a1,2
    2e14:	00b50633          	add	a2,a0,a1
    2e18:	7cc0a623          	sw	a2,1996(ra)

00002e1c <inst_533>:
    2e1c:	0000b537          	lui	a0,0xb
    2e20:	50350513          	addi	a0,a0,1283 # b503 <fromhost+0x5903>
    2e24:	555555b7          	lui	a1,0x55555
    2e28:	55458593          	addi	a1,a1,1364 # 55555554 <absimm+0x10263025>
    2e2c:	00b50633          	add	a2,a0,a1
    2e30:	7cc0a823          	sw	a2,2000(ra)

00002e34 <inst_534>:
    2e34:	0000b537          	lui	a0,0xb
    2e38:	50350513          	addi	a0,a0,1283 # b503 <fromhost+0x5903>
    2e3c:	00000593          	li	a1,0
    2e40:	00b50633          	add	a2,a0,a1
    2e44:	7cc0aa23          	sw	a2,2004(ra)

00002e48 <inst_535>:
    2e48:	0000b537          	lui	a0,0xb
    2e4c:	50350513          	addi	a0,a0,1283 # b503 <fromhost+0x5903>
    2e50:	00400593          	li	a1,4
    2e54:	00b50633          	add	a2,a0,a1
    2e58:	7cc0ac23          	sw	a2,2008(ra)

00002e5c <inst_536>:
    2e5c:	0000b537          	lui	a0,0xb
    2e60:	50350513          	addi	a0,a0,1283 # b503 <fromhost+0x5903>
    2e64:	333335b7          	lui	a1,0x33333
    2e68:	33258593          	addi	a1,a1,818 # 33333332 <fromhost+0x3332d732>
    2e6c:	00b50633          	add	a2,a0,a1
    2e70:	7cc0ae23          	sw	a2,2012(ra)

00002e74 <inst_537>:
    2e74:	0000b537          	lui	a0,0xb
    2e78:	50350513          	addi	a0,a0,1283 # b503 <fromhost+0x5903>
    2e7c:	666665b7          	lui	a1,0x66666
    2e80:	66558593          	addi	a1,a1,1637 # 66666665 <absimm+0x21374136>
    2e84:	00b50633          	add	a2,a0,a1
    2e88:	7ec0a023          	sw	a2,2016(ra)

00002e8c <inst_538>:
    2e8c:	0000b537          	lui	a0,0xb
    2e90:	50350513          	addi	a0,a0,1283 # b503 <fromhost+0x5903>
    2e94:	0000b5b7          	lui	a1,0xb
    2e98:	50358593          	addi	a1,a1,1283 # b503 <fromhost+0x5903>
    2e9c:	00b50633          	add	a2,a0,a1
    2ea0:	7ec0a223          	sw	a2,2020(ra)

00002ea4 <inst_539>:
    2ea4:	0000b537          	lui	a0,0xb
    2ea8:	50350513          	addi	a0,a0,1283 # b503 <fromhost+0x5903>
    2eac:	555555b7          	lui	a1,0x55555
    2eb0:	55658593          	addi	a1,a1,1366 # 55555556 <absimm+0x10263027>
    2eb4:	00b50633          	add	a2,a0,a1
    2eb8:	7ec0a423          	sw	a2,2024(ra)

00002ebc <inst_540>:
    2ebc:	0000b537          	lui	a0,0xb
    2ec0:	50350513          	addi	a0,a0,1283 # b503 <fromhost+0x5903>
    2ec4:	aaaab5b7          	lui	a1,0xaaaab
    2ec8:	aab58593          	addi	a1,a1,-1365 # aaaaaaab <absimm+0x657b857c>
    2ecc:	00b50633          	add	a2,a0,a1
    2ed0:	7ec0a623          	sw	a2,2028(ra)

00002ed4 <inst_541>:
    2ed4:	0000b537          	lui	a0,0xb
    2ed8:	50350513          	addi	a0,a0,1283 # b503 <fromhost+0x5903>
    2edc:	00600593          	li	a1,6
    2ee0:	00b50633          	add	a2,a0,a1
    2ee4:	7ec0a823          	sw	a2,2032(ra)

00002ee8 <inst_542>:
    2ee8:	0000b537          	lui	a0,0xb
    2eec:	50350513          	addi	a0,a0,1283 # b503 <fromhost+0x5903>
    2ef0:	333335b7          	lui	a1,0x33333
    2ef4:	33458593          	addi	a1,a1,820 # 33333334 <fromhost+0x3332d734>
    2ef8:	00b50633          	add	a2,a0,a1
    2efc:	7ec0aa23          	sw	a2,2036(ra)

00002f00 <inst_543>:
    2f00:	0000b537          	lui	a0,0xb
    2f04:	50350513          	addi	a0,a0,1283 # b503 <fromhost+0x5903>
    2f08:	666665b7          	lui	a1,0x66666
    2f0c:	66758593          	addi	a1,a1,1639 # 66666667 <absimm+0x21374138>
    2f10:	00b50633          	add	a2,a0,a1
    2f14:	7ec0ac23          	sw	a2,2040(ra)

00002f18 <inst_544>:
    2f18:	0000b537          	lui	a0,0xb
    2f1c:	50350513          	addi	a0,a0,1283 # b503 <fromhost+0x5903>
    2f20:	ffff55b7          	lui	a1,0xffff5
    2f24:	afd58593          	addi	a1,a1,-1283 # ffff4afd <immx+0x452e702d>
    2f28:	00b50633          	add	a2,a0,a1
    2f2c:	7ec0ae23          	sw	a2,2044(ra)
    2f30:	00000013          	nop
    2f34:	00000013          	nop
    2f38:	00000013          	nop
    2f3c:	00000013          	nop
    2f40:	00003097          	auipc	ra,0x3
    2f44:	a5808093          	addi	ra,ra,-1448 # 5998 <signature_x1_1>
    2f48:	00000013          	nop
    2f4c:	00000013          	nop
    2f50:	00000013          	nop
    2f54:	00000013          	nop
    2f58:	00000013          	nop
    2f5c:	00000013          	nop

00002f60 <inst_545>:
    2f60:	0000b537          	lui	a0,0xb
    2f64:	50350513          	addi	a0,a0,1283 # b503 <fromhost+0x5903>
    2f68:	0000b5b7          	lui	a1,0xb
    2f6c:	50558593          	addi	a1,a1,1285 # b505 <fromhost+0x5905>
    2f70:	00b50633          	add	a2,a0,a1
    2f74:	00c0a023          	sw	a2,0(ra)

00002f78 <inst_546>:
    2f78:	55555537          	lui	a0,0x55555
    2f7c:	55650513          	addi	a0,a0,1366 # 55555556 <absimm+0x10263027>
    2f80:	00300593          	li	a1,3
    2f84:	00b50633          	add	a2,a0,a1
    2f88:	00c0a223          	sw	a2,4(ra)

00002f8c <inst_547>:
    2f8c:	55555537          	lui	a0,0x55555
    2f90:	55650513          	addi	a0,a0,1366 # 55555556 <absimm+0x10263027>
    2f94:	555555b7          	lui	a1,0x55555
    2f98:	55558593          	addi	a1,a1,1365 # 55555555 <absimm+0x10263026>
    2f9c:	00b50633          	add	a2,a0,a1
    2fa0:	00c0a423          	sw	a2,8(ra)

00002fa4 <inst_548>:
    2fa4:	55555537          	lui	a0,0x55555
    2fa8:	55650513          	addi	a0,a0,1366 # 55555556 <absimm+0x10263027>
    2fac:	aaaab5b7          	lui	a1,0xaaaab
    2fb0:	aaa58593          	addi	a1,a1,-1366 # aaaaaaaa <absimm+0x657b857b>
    2fb4:	00b50633          	add	a2,a0,a1
    2fb8:	00c0a623          	sw	a2,12(ra)

00002fbc <inst_549>:
    2fbc:	55555537          	lui	a0,0x55555
    2fc0:	55650513          	addi	a0,a0,1366 # 55555556 <absimm+0x10263027>
    2fc4:	00500593          	li	a1,5
    2fc8:	00b50633          	add	a2,a0,a1
    2fcc:	00c0a823          	sw	a2,16(ra)

00002fd0 <inst_550>:
    2fd0:	55555537          	lui	a0,0x55555
    2fd4:	55650513          	addi	a0,a0,1366 # 55555556 <absimm+0x10263027>
    2fd8:	333335b7          	lui	a1,0x33333
    2fdc:	33358593          	addi	a1,a1,819 # 33333333 <fromhost+0x3332d733>
    2fe0:	00b50633          	add	a2,a0,a1
    2fe4:	00c0aa23          	sw	a2,20(ra)

00002fe8 <inst_551>:
    2fe8:	55555537          	lui	a0,0x55555
    2fec:	55650513          	addi	a0,a0,1366 # 55555556 <absimm+0x10263027>
    2ff0:	666665b7          	lui	a1,0x66666
    2ff4:	66658593          	addi	a1,a1,1638 # 66666666 <absimm+0x21374137>
    2ff8:	00b50633          	add	a2,a0,a1
    2ffc:	00c0ac23          	sw	a2,24(ra)

00003000 <inst_552>:
    3000:	55555537          	lui	a0,0x55555
    3004:	55650513          	addi	a0,a0,1366 # 55555556 <absimm+0x10263027>
    3008:	ffff55b7          	lui	a1,0xffff5
    300c:	afc58593          	addi	a1,a1,-1284 # ffff4afc <immx+0x452e702c>
    3010:	00b50633          	add	a2,a0,a1
    3014:	00c0ae23          	sw	a2,28(ra)

00003018 <inst_553>:
    3018:	55555537          	lui	a0,0x55555
    301c:	55650513          	addi	a0,a0,1366 # 55555556 <absimm+0x10263027>
    3020:	0000b5b7          	lui	a1,0xb
    3024:	50458593          	addi	a1,a1,1284 # b504 <fromhost+0x5904>
    3028:	00b50633          	add	a2,a0,a1
    302c:	02c0a023          	sw	a2,32(ra)

00003030 <inst_554>:
    3030:	55555537          	lui	a0,0x55555
    3034:	55650513          	addi	a0,a0,1366 # 55555556 <absimm+0x10263027>
    3038:	00200593          	li	a1,2
    303c:	00b50633          	add	a2,a0,a1
    3040:	02c0a223          	sw	a2,36(ra)

00003044 <inst_555>:
    3044:	55555537          	lui	a0,0x55555
    3048:	55650513          	addi	a0,a0,1366 # 55555556 <absimm+0x10263027>
    304c:	555555b7          	lui	a1,0x55555
    3050:	55458593          	addi	a1,a1,1364 # 55555554 <absimm+0x10263025>
    3054:	00b50633          	add	a2,a0,a1
    3058:	02c0a423          	sw	a2,40(ra)

0000305c <inst_556>:
    305c:	55555537          	lui	a0,0x55555
    3060:	55650513          	addi	a0,a0,1366 # 55555556 <absimm+0x10263027>
    3064:	00000593          	li	a1,0
    3068:	00b50633          	add	a2,a0,a1
    306c:	02c0a623          	sw	a2,44(ra)

00003070 <inst_557>:
    3070:	55555537          	lui	a0,0x55555
    3074:	55650513          	addi	a0,a0,1366 # 55555556 <absimm+0x10263027>
    3078:	00400593          	li	a1,4
    307c:	00b50633          	add	a2,a0,a1
    3080:	02c0a823          	sw	a2,48(ra)

00003084 <inst_558>:
    3084:	55555537          	lui	a0,0x55555
    3088:	55650513          	addi	a0,a0,1366 # 55555556 <absimm+0x10263027>
    308c:	333335b7          	lui	a1,0x33333
    3090:	33258593          	addi	a1,a1,818 # 33333332 <fromhost+0x3332d732>
    3094:	00b50633          	add	a2,a0,a1
    3098:	02c0aa23          	sw	a2,52(ra)

0000309c <inst_559>:
    309c:	55555537          	lui	a0,0x55555
    30a0:	55650513          	addi	a0,a0,1366 # 55555556 <absimm+0x10263027>
    30a4:	666665b7          	lui	a1,0x66666
    30a8:	66558593          	addi	a1,a1,1637 # 66666665 <absimm+0x21374136>
    30ac:	00b50633          	add	a2,a0,a1
    30b0:	02c0ac23          	sw	a2,56(ra)

000030b4 <inst_560>:
    30b4:	55555537          	lui	a0,0x55555
    30b8:	55650513          	addi	a0,a0,1366 # 55555556 <absimm+0x10263027>
    30bc:	0000b5b7          	lui	a1,0xb
    30c0:	50358593          	addi	a1,a1,1283 # b503 <fromhost+0x5903>
    30c4:	00b50633          	add	a2,a0,a1
    30c8:	02c0ae23          	sw	a2,60(ra)

000030cc <inst_561>:
    30cc:	55555537          	lui	a0,0x55555
    30d0:	55650513          	addi	a0,a0,1366 # 55555556 <absimm+0x10263027>
    30d4:	aaaab5b7          	lui	a1,0xaaaab
    30d8:	aab58593          	addi	a1,a1,-1365 # aaaaaaab <absimm+0x657b857c>
    30dc:	00b50633          	add	a2,a0,a1
    30e0:	04c0a023          	sw	a2,64(ra)

000030e4 <inst_562>:
    30e4:	55555537          	lui	a0,0x55555
    30e8:	55650513          	addi	a0,a0,1366 # 55555556 <absimm+0x10263027>
    30ec:	00600593          	li	a1,6
    30f0:	00b50633          	add	a2,a0,a1
    30f4:	04c0a223          	sw	a2,68(ra)

000030f8 <inst_563>:
    30f8:	55555537          	lui	a0,0x55555
    30fc:	55650513          	addi	a0,a0,1366 # 55555556 <absimm+0x10263027>
    3100:	333335b7          	lui	a1,0x33333
    3104:	33458593          	addi	a1,a1,820 # 33333334 <fromhost+0x3332d734>
    3108:	00b50633          	add	a2,a0,a1
    310c:	04c0a423          	sw	a2,72(ra)

00003110 <inst_564>:
    3110:	55555537          	lui	a0,0x55555
    3114:	55650513          	addi	a0,a0,1366 # 55555556 <absimm+0x10263027>
    3118:	666665b7          	lui	a1,0x66666
    311c:	66758593          	addi	a1,a1,1639 # 66666667 <absimm+0x21374138>
    3120:	00b50633          	add	a2,a0,a1
    3124:	04c0a623          	sw	a2,76(ra)

00003128 <inst_565>:
    3128:	55555537          	lui	a0,0x55555
    312c:	55650513          	addi	a0,a0,1366 # 55555556 <absimm+0x10263027>
    3130:	ffff55b7          	lui	a1,0xffff5
    3134:	afd58593          	addi	a1,a1,-1283 # ffff4afd <immx+0x452e702d>
    3138:	00b50633          	add	a2,a0,a1
    313c:	04c0a823          	sw	a2,80(ra)

00003140 <inst_566>:
    3140:	55555537          	lui	a0,0x55555
    3144:	55650513          	addi	a0,a0,1366 # 55555556 <absimm+0x10263027>
    3148:	0000b5b7          	lui	a1,0xb
    314c:	50558593          	addi	a1,a1,1285 # b505 <fromhost+0x5905>
    3150:	00b50633          	add	a2,a0,a1
    3154:	04c0aa23          	sw	a2,84(ra)

00003158 <inst_567>:
    3158:	aaaab537          	lui	a0,0xaaaab
    315c:	aab50513          	addi	a0,a0,-1365 # aaaaaaab <absimm+0x657b857c>
    3160:	00300593          	li	a1,3
    3164:	00b50633          	add	a2,a0,a1
    3168:	04c0ac23          	sw	a2,88(ra)

0000316c <inst_568>:
    316c:	aaaab537          	lui	a0,0xaaaab
    3170:	aab50513          	addi	a0,a0,-1365 # aaaaaaab <absimm+0x657b857c>
    3174:	555555b7          	lui	a1,0x55555
    3178:	55558593          	addi	a1,a1,1365 # 55555555 <absimm+0x10263026>
    317c:	00b50633          	add	a2,a0,a1
    3180:	04c0ae23          	sw	a2,92(ra)

00003184 <inst_569>:
    3184:	aaaab537          	lui	a0,0xaaaab
    3188:	aab50513          	addi	a0,a0,-1365 # aaaaaaab <absimm+0x657b857c>
    318c:	aaaab5b7          	lui	a1,0xaaaab
    3190:	aaa58593          	addi	a1,a1,-1366 # aaaaaaaa <absimm+0x657b857b>
    3194:	00b50633          	add	a2,a0,a1
    3198:	06c0a023          	sw	a2,96(ra)

0000319c <inst_570>:
    319c:	aaaab537          	lui	a0,0xaaaab
    31a0:	aab50513          	addi	a0,a0,-1365 # aaaaaaab <absimm+0x657b857c>
    31a4:	00500593          	li	a1,5
    31a8:	00b50633          	add	a2,a0,a1
    31ac:	06c0a223          	sw	a2,100(ra)

000031b0 <inst_571>:
    31b0:	aaaab537          	lui	a0,0xaaaab
    31b4:	aab50513          	addi	a0,a0,-1365 # aaaaaaab <absimm+0x657b857c>
    31b8:	333335b7          	lui	a1,0x33333
    31bc:	33358593          	addi	a1,a1,819 # 33333333 <fromhost+0x3332d733>
    31c0:	00b50633          	add	a2,a0,a1
    31c4:	06c0a423          	sw	a2,104(ra)

000031c8 <inst_572>:
    31c8:	aaaab537          	lui	a0,0xaaaab
    31cc:	aab50513          	addi	a0,a0,-1365 # aaaaaaab <absimm+0x657b857c>
    31d0:	666665b7          	lui	a1,0x66666
    31d4:	66658593          	addi	a1,a1,1638 # 66666666 <absimm+0x21374137>
    31d8:	00b50633          	add	a2,a0,a1
    31dc:	06c0a623          	sw	a2,108(ra)

000031e0 <inst_573>:
    31e0:	aaaab537          	lui	a0,0xaaaab
    31e4:	aab50513          	addi	a0,a0,-1365 # aaaaaaab <absimm+0x657b857c>
    31e8:	ffff55b7          	lui	a1,0xffff5
    31ec:	afc58593          	addi	a1,a1,-1284 # ffff4afc <immx+0x452e702c>
    31f0:	00b50633          	add	a2,a0,a1
    31f4:	06c0a823          	sw	a2,112(ra)

000031f8 <inst_574>:
    31f8:	aaaab537          	lui	a0,0xaaaab
    31fc:	aab50513          	addi	a0,a0,-1365 # aaaaaaab <absimm+0x657b857c>
    3200:	0000b5b7          	lui	a1,0xb
    3204:	50458593          	addi	a1,a1,1284 # b504 <fromhost+0x5904>
    3208:	00b50633          	add	a2,a0,a1
    320c:	06c0aa23          	sw	a2,116(ra)

00003210 <inst_575>:
    3210:	aaaab537          	lui	a0,0xaaaab
    3214:	aab50513          	addi	a0,a0,-1365 # aaaaaaab <absimm+0x657b857c>
    3218:	00200593          	li	a1,2
    321c:	00b50633          	add	a2,a0,a1
    3220:	06c0ac23          	sw	a2,120(ra)

00003224 <inst_576>:
    3224:	aaaab537          	lui	a0,0xaaaab
    3228:	aab50513          	addi	a0,a0,-1365 # aaaaaaab <absimm+0x657b857c>
    322c:	555555b7          	lui	a1,0x55555
    3230:	55458593          	addi	a1,a1,1364 # 55555554 <absimm+0x10263025>
    3234:	00b50633          	add	a2,a0,a1
    3238:	06c0ae23          	sw	a2,124(ra)

0000323c <inst_577>:
    323c:	aaaab537          	lui	a0,0xaaaab
    3240:	aab50513          	addi	a0,a0,-1365 # aaaaaaab <absimm+0x657b857c>
    3244:	00000593          	li	a1,0
    3248:	00b50633          	add	a2,a0,a1
    324c:	08c0a023          	sw	a2,128(ra)

00003250 <inst_578>:
    3250:	aaaab537          	lui	a0,0xaaaab
    3254:	aab50513          	addi	a0,a0,-1365 # aaaaaaab <absimm+0x657b857c>
    3258:	00400593          	li	a1,4
    325c:	00b50633          	add	a2,a0,a1
    3260:	08c0a223          	sw	a2,132(ra)

00003264 <inst_579>:
    3264:	aaaab537          	lui	a0,0xaaaab
    3268:	aab50513          	addi	a0,a0,-1365 # aaaaaaab <absimm+0x657b857c>
    326c:	333335b7          	lui	a1,0x33333
    3270:	33258593          	addi	a1,a1,818 # 33333332 <fromhost+0x3332d732>
    3274:	00b50633          	add	a2,a0,a1
    3278:	08c0a423          	sw	a2,136(ra)

0000327c <inst_580>:
    327c:	aaaab537          	lui	a0,0xaaaab
    3280:	aab50513          	addi	a0,a0,-1365 # aaaaaaab <absimm+0x657b857c>
    3284:	666665b7          	lui	a1,0x66666
    3288:	66558593          	addi	a1,a1,1637 # 66666665 <absimm+0x21374136>
    328c:	00b50633          	add	a2,a0,a1
    3290:	08c0a623          	sw	a2,140(ra)

00003294 <inst_581>:
    3294:	aaaab537          	lui	a0,0xaaaab
    3298:	aab50513          	addi	a0,a0,-1365 # aaaaaaab <absimm+0x657b857c>
    329c:	0000b5b7          	lui	a1,0xb
    32a0:	50358593          	addi	a1,a1,1283 # b503 <fromhost+0x5903>
    32a4:	00b50633          	add	a2,a0,a1
    32a8:	08c0a823          	sw	a2,144(ra)

000032ac <inst_582>:
    32ac:	aaaab537          	lui	a0,0xaaaab
    32b0:	aab50513          	addi	a0,a0,-1365 # aaaaaaab <absimm+0x657b857c>
    32b4:	555555b7          	lui	a1,0x55555
    32b8:	55658593          	addi	a1,a1,1366 # 55555556 <absimm+0x10263027>
    32bc:	00b50633          	add	a2,a0,a1
    32c0:	08c0aa23          	sw	a2,148(ra)

000032c4 <inst_583>:
    32c4:	00020537          	lui	a0,0x20
    32c8:	eff00593          	li	a1,-257
    32cc:	00b50633          	add	a2,a0,a1
    32d0:	08c0ac23          	sw	a2,152(ra)

000032d4 <inst_584>:
    32d4:	ff000537          	lui	a0,0xff000
    32d8:	fff50513          	addi	a0,a0,-1 # feffffff <immx+0x442f252f>
    32dc:	ff900593          	li	a1,-7
    32e0:	00b50633          	add	a2,a0,a1
    32e4:	08c0ae23          	sw	a2,156(ra)

000032e8 <inst_585>:
    32e8:	00100513          	li	a0,1
    32ec:	008005b7          	lui	a1,0x800
    32f0:	00b50633          	add	a2,a0,a1
    32f4:	0ac0a023          	sw	a2,160(ra)

000032f8 <inst_586>:
    32f8:	ffff5537          	lui	a0,0xffff5
    32fc:	afc50513          	addi	a0,a0,-1284 # ffff4afc <immx+0x452e702c>
    3300:	40000593          	li	a1,1024
    3304:	00b50633          	add	a2,a0,a1
    3308:	0ac0a223          	sw	a2,164(ra)

0000330c <inst_587>:
    330c:	00400513          	li	a0,4
    3310:	000015b7          	lui	a1,0x1
    3314:	00b50633          	add	a2,a0,a1
    3318:	0ac0a423          	sw	a2,168(ra)

0000331c <cleanup_epilogs>:
    331c:	0200006f          	j	333c <exit_cleanup>

00003320 <abort_tests>:
    3320:	17812483          	lw	s1,376(sp)
    3324:	18012303          	lw	t1,384(sp)
    3328:	00930333          	add	t1,t1,s1
    332c:	bad0e337          	lui	t1,0xbad0e
    3330:	ad030313          	addi	t1,t1,-1328 # bad0dad0 <immx>
    3334:	fe64ae23          	sw	t1,-4(s1) # 7ffffc <fromhost+0x7fa3fc>
    3338:	0040006f          	j	333c <exit_cleanup>

0000333c <exit_cleanup>:
    333c:	00002517          	auipc	a0,0x2
- Register a0 (x10) should contain 5110
    3340:	dd450513          	addi	a0,a0,-556 # 5110 <begin_signature>
    3344:	00002597          	auipc	a1,0x2
    3348:	70058593          	addi	a1,a1,1792 # 5a44 <sig_end_canary>
- Register a1 (x11) should be 0x5a48 ok
    334c:	00458593          	addi	a1,a1,4
- Load 0xf0000000 into x12 (a2)
    3350:	f0000637          	lui	a2,0xf0000

- Look for isntruction 0x3350 (26.1 e6 ns)
00003354 <signature_dump_loop>:
- While (a0 < a1) (x10 < x11)
    3354:	00b55a63          	bge	a0,a1,3368 <signature_dump_end>
- Load what is at address x10 into t0 (x5)
- Is the first loaded word indeed 0x80000000? -> it's 0, so the word loaded is 0 for some reason
    3358:	00052283          	lw	t0,0(a0)
- Store what is at address x5 into address of a2 (x12) a.k.a. 0xf0000000 -> write to sig
- Check if the value read is actually 0x00000000 to know if something is wrong with the store or memory read.
- The read data seems correct, it gets latched for a clock cycle 26.11e3 ns
- Seems to be latched for the 1 clock-cycle in dmem, and should normally be written by exmem into register.
- The issue here seems to be that the RDATA gets latched for 1 cycle but the REG_WDATA isn't latched
- The RDATA should I believe be latched into the exmem register
-    335c:	00562023          	sw	t0,0(a2) # f0000000 <immx+0x352f2530>
- Add 4 to a0 (x10)
    3360:	00450513          	addi	a0,a0,4
    3364:	ff1ff06f          	j	3354 <signature_dump_loop>

00003368 <signature_dump_end>:
    3368:	f0000537          	lui	a0,0xf0000
    336c:	00450513          	addi	a0,a0,4 # f0000004 <immx+0x352f2534>
    3370:	cafed5b7          	lui	a1,0xcafed
    3374:	afe58593          	addi	a1,a1,-1282 # cafecafe <immx+0x102df02e>

00003378 <terminate_simulation>:
    3378:	00b52023          	sw	a1,0(a0)
    337c:	ffdff06f          	j	3378 <terminate_simulation>
	...

00004000 <rvtest_data_begin>:
    4000:	cafe                	.insn	2, 0xcafe
    4002:	babe                	.insn	2, 0xbabe
    4004:	cafe                	.insn	2, 0xcafe
    4006:	babe                	.insn	2, 0xbabe
    4008:	cafe                	.insn	2, 0xcafe
    400a:	babe                	.insn	2, 0xbabe
    400c:	cafe                	.insn	2, 0xcafe
    400e:	babe                	.insn	2, 0xbabe
	...

00005000 <begin_regstate>:
    5000:	0080                	.insn	2, 0x0080
	...

00005100 <end_regstate>:
    5100:	0004                	.insn	2, 0x0004
	...

00005110 <begin_signature>:
    5110:	a309                	.insn	2, 0xa309
    5112:	6f5c                	.insn	2, 0x6f5c

00005114 <signature_x3_0>:
    5114:	deadbeef          	jal	t4,fffe06fe <imm12+0xfffe0c2e>
    5118:	deadbeef          	jal	t4,fffe0702 <imm12+0xfffe0c32>
    511c:	deadbeef          	jal	t4,fffe0706 <imm12+0xfffe0c36>
    5120:	deadbeef          	jal	t4,fffe070a <imm12+0xfffe0c3a>
    5124:	deadbeef          	jal	t4,fffe070e <imm12+0xfffe0c3e>
    5128:	deadbeef          	jal	t4,fffe0712 <imm12+0xfffe0c42>
    512c:	deadbeef          	jal	t4,fffe0716 <imm12+0xfffe0c46>
    5130:	deadbeef          	jal	t4,fffe071a <imm12+0xfffe0c4a>
    5134:	deadbeef          	jal	t4,fffe071e <imm12+0xfffe0c4e>
    5138:	deadbeef          	jal	t4,fffe0722 <imm12+0xfffe0c52>
    513c:	deadbeef          	jal	t4,fffe0726 <imm12+0xfffe0c56>
    5140:	deadbeef          	jal	t4,fffe072a <imm12+0xfffe0c5a>
    5144:	deadbeef          	jal	t4,fffe072e <imm12+0xfffe0c5e>
    5148:	deadbeef          	jal	t4,fffe0732 <imm12+0xfffe0c62>
    514c:	deadbeef          	jal	t4,fffe0736 <imm12+0xfffe0c66>
    5150:	deadbeef          	jal	t4,fffe073a <imm12+0xfffe0c6a>
    5154:	deadbeef          	jal	t4,fffe073e <imm12+0xfffe0c6e>

00005158 <signature_x8_0>:
    5158:	deadbeef          	jal	t4,fffe0742 <imm12+0xfffe0c72>
    515c:	deadbeef          	jal	t4,fffe0746 <imm12+0xfffe0c76>
    5160:	deadbeef          	jal	t4,fffe074a <imm12+0xfffe0c7a>
    5164:	deadbeef          	jal	t4,fffe074e <imm12+0xfffe0c7e>
    5168:	deadbeef          	jal	t4,fffe0752 <imm12+0xfffe0c82>
    516c:	deadbeef          	jal	t4,fffe0756 <imm12+0xfffe0c86>
    5170:	deadbeef          	jal	t4,fffe075a <imm12+0xfffe0c8a>
    5174:	deadbeef          	jal	t4,fffe075e <imm12+0xfffe0c8e>
    5178:	deadbeef          	jal	t4,fffe0762 <imm12+0xfffe0c92>
    517c:	deadbeef          	jal	t4,fffe0766 <imm12+0xfffe0c96>
    5180:	deadbeef          	jal	t4,fffe076a <imm12+0xfffe0c9a>
    5184:	deadbeef          	jal	t4,fffe076e <imm12+0xfffe0c9e>
    5188:	deadbeef          	jal	t4,fffe0772 <imm12+0xfffe0ca2>
    518c:	deadbeef          	jal	t4,fffe0776 <imm12+0xfffe0ca6>
    5190:	deadbeef          	jal	t4,fffe077a <imm12+0xfffe0caa>
    5194:	deadbeef          	jal	t4,fffe077e <imm12+0xfffe0cae>

00005198 <signature_x1_0>:
    5198:	deadbeef          	jal	t4,fffe0782 <imm12+0xfffe0cb2>
    519c:	deadbeef          	jal	t4,fffe0786 <imm12+0xfffe0cb6>
    51a0:	deadbeef          	jal	t4,fffe078a <imm12+0xfffe0cba>
    51a4:	deadbeef          	jal	t4,fffe078e <imm12+0xfffe0cbe>
    51a8:	deadbeef          	jal	t4,fffe0792 <imm12+0xfffe0cc2>
    51ac:	deadbeef          	jal	t4,fffe0796 <imm12+0xfffe0cc6>
    51b0:	deadbeef          	jal	t4,fffe079a <imm12+0xfffe0cca>
    51b4:	deadbeef          	jal	t4,fffe079e <imm12+0xfffe0cce>
    51b8:	deadbeef          	jal	t4,fffe07a2 <imm12+0xfffe0cd2>
    51bc:	deadbeef          	jal	t4,fffe07a6 <imm12+0xfffe0cd6>
    51c0:	deadbeef          	jal	t4,fffe07aa <imm12+0xfffe0cda>
    51c4:	deadbeef          	jal	t4,fffe07ae <imm12+0xfffe0cde>
    51c8:	deadbeef          	jal	t4,fffe07b2 <imm12+0xfffe0ce2>
    51cc:	deadbeef          	jal	t4,fffe07b6 <imm12+0xfffe0ce6>
    51d0:	deadbeef          	jal	t4,fffe07ba <imm12+0xfffe0cea>
    51d4:	deadbeef          	jal	t4,fffe07be <imm12+0xfffe0cee>
    51d8:	deadbeef          	jal	t4,fffe07c2 <imm12+0xfffe0cf2>
    51dc:	deadbeef          	jal	t4,fffe07c6 <imm12+0xfffe0cf6>
    51e0:	deadbeef          	jal	t4,fffe07ca <imm12+0xfffe0cfa>
    51e4:	deadbeef          	jal	t4,fffe07ce <imm12+0xfffe0cfe>
    51e8:	deadbeef          	jal	t4,fffe07d2 <imm12+0xfffe0d02>
    51ec:	deadbeef          	jal	t4,fffe07d6 <imm12+0xfffe0d06>
    51f0:	deadbeef          	jal	t4,fffe07da <imm12+0xfffe0d0a>
    51f4:	deadbeef          	jal	t4,fffe07de <imm12+0xfffe0d0e>
    51f8:	deadbeef          	jal	t4,fffe07e2 <imm12+0xfffe0d12>
    51fc:	deadbeef          	jal	t4,fffe07e6 <imm12+0xfffe0d16>
    5200:	deadbeef          	jal	t4,fffe07ea <imm12+0xfffe0d1a>
    5204:	deadbeef          	jal	t4,fffe07ee <imm12+0xfffe0d1e>
    5208:	deadbeef          	jal	t4,fffe07f2 <imm12+0xfffe0d22>
    520c:	deadbeef          	jal	t4,fffe07f6 <imm12+0xfffe0d26>
    5210:	deadbeef          	jal	t4,fffe07fa <imm12+0xfffe0d2a>
    5214:	deadbeef          	jal	t4,fffe07fe <imm12+0xfffe0d2e>
    5218:	deadbeef          	jal	t4,fffe0802 <imm12+0xfffe0d32>
    521c:	deadbeef          	jal	t4,fffe0806 <imm12+0xfffe0d36>
    5220:	deadbeef          	jal	t4,fffe080a <imm12+0xfffe0d3a>
    5224:	deadbeef          	jal	t4,fffe080e <imm12+0xfffe0d3e>
    5228:	deadbeef          	jal	t4,fffe0812 <imm12+0xfffe0d42>
    522c:	deadbeef          	jal	t4,fffe0816 <imm12+0xfffe0d46>
    5230:	deadbeef          	jal	t4,fffe081a <imm12+0xfffe0d4a>
    5234:	deadbeef          	jal	t4,fffe081e <imm12+0xfffe0d4e>
    5238:	deadbeef          	jal	t4,fffe0822 <imm12+0xfffe0d52>
    523c:	deadbeef          	jal	t4,fffe0826 <imm12+0xfffe0d56>
    5240:	deadbeef          	jal	t4,fffe082a <imm12+0xfffe0d5a>
    5244:	deadbeef          	jal	t4,fffe082e <imm12+0xfffe0d5e>
    5248:	deadbeef          	jal	t4,fffe0832 <imm12+0xfffe0d62>
    524c:	deadbeef          	jal	t4,fffe0836 <imm12+0xfffe0d66>
    5250:	deadbeef          	jal	t4,fffe083a <imm12+0xfffe0d6a>
    5254:	deadbeef          	jal	t4,fffe083e <imm12+0xfffe0d6e>
    5258:	deadbeef          	jal	t4,fffe0842 <imm12+0xfffe0d72>
    525c:	deadbeef          	jal	t4,fffe0846 <imm12+0xfffe0d76>
    5260:	deadbeef          	jal	t4,fffe084a <imm12+0xfffe0d7a>
    5264:	deadbeef          	jal	t4,fffe084e <imm12+0xfffe0d7e>
    5268:	deadbeef          	jal	t4,fffe0852 <imm12+0xfffe0d82>
    526c:	deadbeef          	jal	t4,fffe0856 <imm12+0xfffe0d86>
    5270:	deadbeef          	jal	t4,fffe085a <imm12+0xfffe0d8a>
    5274:	deadbeef          	jal	t4,fffe085e <imm12+0xfffe0d8e>
    5278:	deadbeef          	jal	t4,fffe0862 <imm12+0xfffe0d92>
    527c:	deadbeef          	jal	t4,fffe0866 <imm12+0xfffe0d96>
    5280:	deadbeef          	jal	t4,fffe086a <imm12+0xfffe0d9a>
    5284:	deadbeef          	jal	t4,fffe086e <imm12+0xfffe0d9e>
    5288:	deadbeef          	jal	t4,fffe0872 <imm12+0xfffe0da2>
    528c:	deadbeef          	jal	t4,fffe0876 <imm12+0xfffe0da6>
    5290:	deadbeef          	jal	t4,fffe087a <imm12+0xfffe0daa>
    5294:	deadbeef          	jal	t4,fffe087e <imm12+0xfffe0dae>
    5298:	deadbeef          	jal	t4,fffe0882 <imm12+0xfffe0db2>
    529c:	deadbeef          	jal	t4,fffe0886 <imm12+0xfffe0db6>
    52a0:	deadbeef          	jal	t4,fffe088a <imm12+0xfffe0dba>
    52a4:	deadbeef          	jal	t4,fffe088e <imm12+0xfffe0dbe>
    52a8:	deadbeef          	jal	t4,fffe0892 <imm12+0xfffe0dc2>
    52ac:	deadbeef          	jal	t4,fffe0896 <imm12+0xfffe0dc6>
    52b0:	deadbeef          	jal	t4,fffe089a <imm12+0xfffe0dca>
    52b4:	deadbeef          	jal	t4,fffe089e <imm12+0xfffe0dce>
    52b8:	deadbeef          	jal	t4,fffe08a2 <imm12+0xfffe0dd2>
    52bc:	deadbeef          	jal	t4,fffe08a6 <imm12+0xfffe0dd6>
    52c0:	deadbeef          	jal	t4,fffe08aa <imm12+0xfffe0dda>
    52c4:	deadbeef          	jal	t4,fffe08ae <imm12+0xfffe0dde>
    52c8:	deadbeef          	jal	t4,fffe08b2 <imm12+0xfffe0de2>
    52cc:	deadbeef          	jal	t4,fffe08b6 <imm12+0xfffe0de6>
    52d0:	deadbeef          	jal	t4,fffe08ba <imm12+0xfffe0dea>
    52d4:	deadbeef          	jal	t4,fffe08be <imm12+0xfffe0dee>
    52d8:	deadbeef          	jal	t4,fffe08c2 <imm12+0xfffe0df2>
    52dc:	deadbeef          	jal	t4,fffe08c6 <imm12+0xfffe0df6>
    52e0:	deadbeef          	jal	t4,fffe08ca <imm12+0xfffe0dfa>
    52e4:	deadbeef          	jal	t4,fffe08ce <imm12+0xfffe0dfe>
    52e8:	deadbeef          	jal	t4,fffe08d2 <imm12+0xfffe0e02>
    52ec:	deadbeef          	jal	t4,fffe08d6 <imm12+0xfffe0e06>
    52f0:	deadbeef          	jal	t4,fffe08da <imm12+0xfffe0e0a>
    52f4:	deadbeef          	jal	t4,fffe08de <imm12+0xfffe0e0e>
    52f8:	deadbeef          	jal	t4,fffe08e2 <imm12+0xfffe0e12>
    52fc:	deadbeef          	jal	t4,fffe08e6 <imm12+0xfffe0e16>
    5300:	deadbeef          	jal	t4,fffe08ea <imm12+0xfffe0e1a>
    5304:	deadbeef          	jal	t4,fffe08ee <imm12+0xfffe0e1e>
    5308:	deadbeef          	jal	t4,fffe08f2 <imm12+0xfffe0e22>
    530c:	deadbeef          	jal	t4,fffe08f6 <imm12+0xfffe0e26>
    5310:	deadbeef          	jal	t4,fffe08fa <imm12+0xfffe0e2a>
    5314:	deadbeef          	jal	t4,fffe08fe <imm12+0xfffe0e2e>
    5318:	deadbeef          	jal	t4,fffe0902 <imm12+0xfffe0e32>
    531c:	deadbeef          	jal	t4,fffe0906 <imm12+0xfffe0e36>
    5320:	deadbeef          	jal	t4,fffe090a <imm12+0xfffe0e3a>
    5324:	deadbeef          	jal	t4,fffe090e <imm12+0xfffe0e3e>
    5328:	deadbeef          	jal	t4,fffe0912 <imm12+0xfffe0e42>
    532c:	deadbeef          	jal	t4,fffe0916 <imm12+0xfffe0e46>
    5330:	deadbeef          	jal	t4,fffe091a <imm12+0xfffe0e4a>
    5334:	deadbeef          	jal	t4,fffe091e <imm12+0xfffe0e4e>
    5338:	deadbeef          	jal	t4,fffe0922 <imm12+0xfffe0e52>
    533c:	deadbeef          	jal	t4,fffe0926 <imm12+0xfffe0e56>
    5340:	deadbeef          	jal	t4,fffe092a <imm12+0xfffe0e5a>
    5344:	deadbeef          	jal	t4,fffe092e <imm12+0xfffe0e5e>
    5348:	deadbeef          	jal	t4,fffe0932 <imm12+0xfffe0e62>
    534c:	deadbeef          	jal	t4,fffe0936 <imm12+0xfffe0e66>
    5350:	deadbeef          	jal	t4,fffe093a <imm12+0xfffe0e6a>
    5354:	deadbeef          	jal	t4,fffe093e <imm12+0xfffe0e6e>
    5358:	deadbeef          	jal	t4,fffe0942 <imm12+0xfffe0e72>
    535c:	deadbeef          	jal	t4,fffe0946 <imm12+0xfffe0e76>
    5360:	deadbeef          	jal	t4,fffe094a <imm12+0xfffe0e7a>
    5364:	deadbeef          	jal	t4,fffe094e <imm12+0xfffe0e7e>
    5368:	deadbeef          	jal	t4,fffe0952 <imm12+0xfffe0e82>
    536c:	deadbeef          	jal	t4,fffe0956 <imm12+0xfffe0e86>
    5370:	deadbeef          	jal	t4,fffe095a <imm12+0xfffe0e8a>
    5374:	deadbeef          	jal	t4,fffe095e <imm12+0xfffe0e8e>
    5378:	deadbeef          	jal	t4,fffe0962 <imm12+0xfffe0e92>
    537c:	deadbeef          	jal	t4,fffe0966 <imm12+0xfffe0e96>
    5380:	deadbeef          	jal	t4,fffe096a <imm12+0xfffe0e9a>
    5384:	deadbeef          	jal	t4,fffe096e <imm12+0xfffe0e9e>
    5388:	deadbeef          	jal	t4,fffe0972 <imm12+0xfffe0ea2>
    538c:	deadbeef          	jal	t4,fffe0976 <imm12+0xfffe0ea6>
    5390:	deadbeef          	jal	t4,fffe097a <imm12+0xfffe0eaa>
    5394:	deadbeef          	jal	t4,fffe097e <imm12+0xfffe0eae>
    5398:	deadbeef          	jal	t4,fffe0982 <imm12+0xfffe0eb2>
    539c:	deadbeef          	jal	t4,fffe0986 <imm12+0xfffe0eb6>
    53a0:	deadbeef          	jal	t4,fffe098a <imm12+0xfffe0eba>
    53a4:	deadbeef          	jal	t4,fffe098e <imm12+0xfffe0ebe>
    53a8:	deadbeef          	jal	t4,fffe0992 <imm12+0xfffe0ec2>
    53ac:	deadbeef          	jal	t4,fffe0996 <imm12+0xfffe0ec6>
    53b0:	deadbeef          	jal	t4,fffe099a <imm12+0xfffe0eca>
    53b4:	deadbeef          	jal	t4,fffe099e <imm12+0xfffe0ece>
    53b8:	deadbeef          	jal	t4,fffe09a2 <imm12+0xfffe0ed2>
    53bc:	deadbeef          	jal	t4,fffe09a6 <imm12+0xfffe0ed6>
    53c0:	deadbeef          	jal	t4,fffe09aa <imm12+0xfffe0eda>
    53c4:	deadbeef          	jal	t4,fffe09ae <imm12+0xfffe0ede>
    53c8:	deadbeef          	jal	t4,fffe09b2 <imm12+0xfffe0ee2>
    53cc:	deadbeef          	jal	t4,fffe09b6 <imm12+0xfffe0ee6>
    53d0:	deadbeef          	jal	t4,fffe09ba <imm12+0xfffe0eea>
    53d4:	deadbeef          	jal	t4,fffe09be <imm12+0xfffe0eee>
    53d8:	deadbeef          	jal	t4,fffe09c2 <imm12+0xfffe0ef2>
    53dc:	deadbeef          	jal	t4,fffe09c6 <imm12+0xfffe0ef6>
    53e0:	deadbeef          	jal	t4,fffe09ca <imm12+0xfffe0efa>
    53e4:	deadbeef          	jal	t4,fffe09ce <imm12+0xfffe0efe>
    53e8:	deadbeef          	jal	t4,fffe09d2 <imm12+0xfffe0f02>
    53ec:	deadbeef          	jal	t4,fffe09d6 <imm12+0xfffe0f06>
    53f0:	deadbeef          	jal	t4,fffe09da <imm12+0xfffe0f0a>
    53f4:	deadbeef          	jal	t4,fffe09de <imm12+0xfffe0f0e>
    53f8:	deadbeef          	jal	t4,fffe09e2 <imm12+0xfffe0f12>
    53fc:	deadbeef          	jal	t4,fffe09e6 <imm12+0xfffe0f16>
    5400:	deadbeef          	jal	t4,fffe09ea <imm12+0xfffe0f1a>
    5404:	deadbeef          	jal	t4,fffe09ee <imm12+0xfffe0f1e>
    5408:	deadbeef          	jal	t4,fffe09f2 <imm12+0xfffe0f22>
    540c:	deadbeef          	jal	t4,fffe09f6 <imm12+0xfffe0f26>
    5410:	deadbeef          	jal	t4,fffe09fa <imm12+0xfffe0f2a>
    5414:	deadbeef          	jal	t4,fffe09fe <imm12+0xfffe0f2e>
    5418:	deadbeef          	jal	t4,fffe0a02 <imm12+0xfffe0f32>
    541c:	deadbeef          	jal	t4,fffe0a06 <imm12+0xfffe0f36>
    5420:	deadbeef          	jal	t4,fffe0a0a <imm12+0xfffe0f3a>
    5424:	deadbeef          	jal	t4,fffe0a0e <imm12+0xfffe0f3e>
    5428:	deadbeef          	jal	t4,fffe0a12 <imm12+0xfffe0f42>
    542c:	deadbeef          	jal	t4,fffe0a16 <imm12+0xfffe0f46>
    5430:	deadbeef          	jal	t4,fffe0a1a <imm12+0xfffe0f4a>
    5434:	deadbeef          	jal	t4,fffe0a1e <imm12+0xfffe0f4e>
    5438:	deadbeef          	jal	t4,fffe0a22 <imm12+0xfffe0f52>
    543c:	deadbeef          	jal	t4,fffe0a26 <imm12+0xfffe0f56>
    5440:	deadbeef          	jal	t4,fffe0a2a <imm12+0xfffe0f5a>
    5444:	deadbeef          	jal	t4,fffe0a2e <imm12+0xfffe0f5e>
    5448:	deadbeef          	jal	t4,fffe0a32 <imm12+0xfffe0f62>
    544c:	deadbeef          	jal	t4,fffe0a36 <imm12+0xfffe0f66>
    5450:	deadbeef          	jal	t4,fffe0a3a <imm12+0xfffe0f6a>
    5454:	deadbeef          	jal	t4,fffe0a3e <imm12+0xfffe0f6e>
    5458:	deadbeef          	jal	t4,fffe0a42 <imm12+0xfffe0f72>
    545c:	deadbeef          	jal	t4,fffe0a46 <imm12+0xfffe0f76>
    5460:	deadbeef          	jal	t4,fffe0a4a <imm12+0xfffe0f7a>
    5464:	deadbeef          	jal	t4,fffe0a4e <imm12+0xfffe0f7e>
    5468:	deadbeef          	jal	t4,fffe0a52 <imm12+0xfffe0f82>
    546c:	deadbeef          	jal	t4,fffe0a56 <imm12+0xfffe0f86>
    5470:	deadbeef          	jal	t4,fffe0a5a <imm12+0xfffe0f8a>
    5474:	deadbeef          	jal	t4,fffe0a5e <imm12+0xfffe0f8e>
    5478:	deadbeef          	jal	t4,fffe0a62 <imm12+0xfffe0f92>
    547c:	deadbeef          	jal	t4,fffe0a66 <imm12+0xfffe0f96>
    5480:	deadbeef          	jal	t4,fffe0a6a <imm12+0xfffe0f9a>
    5484:	deadbeef          	jal	t4,fffe0a6e <imm12+0xfffe0f9e>
    5488:	deadbeef          	jal	t4,fffe0a72 <imm12+0xfffe0fa2>
    548c:	deadbeef          	jal	t4,fffe0a76 <imm12+0xfffe0fa6>
    5490:	deadbeef          	jal	t4,fffe0a7a <imm12+0xfffe0faa>
    5494:	deadbeef          	jal	t4,fffe0a7e <imm12+0xfffe0fae>
    5498:	deadbeef          	jal	t4,fffe0a82 <imm12+0xfffe0fb2>
    549c:	deadbeef          	jal	t4,fffe0a86 <imm12+0xfffe0fb6>
    54a0:	deadbeef          	jal	t4,fffe0a8a <imm12+0xfffe0fba>
    54a4:	deadbeef          	jal	t4,fffe0a8e <imm12+0xfffe0fbe>
    54a8:	deadbeef          	jal	t4,fffe0a92 <imm12+0xfffe0fc2>
    54ac:	deadbeef          	jal	t4,fffe0a96 <imm12+0xfffe0fc6>
    54b0:	deadbeef          	jal	t4,fffe0a9a <imm12+0xfffe0fca>
    54b4:	deadbeef          	jal	t4,fffe0a9e <imm12+0xfffe0fce>
    54b8:	deadbeef          	jal	t4,fffe0aa2 <imm12+0xfffe0fd2>
    54bc:	deadbeef          	jal	t4,fffe0aa6 <imm12+0xfffe0fd6>
    54c0:	deadbeef          	jal	t4,fffe0aaa <imm12+0xfffe0fda>
    54c4:	deadbeef          	jal	t4,fffe0aae <imm12+0xfffe0fde>
    54c8:	deadbeef          	jal	t4,fffe0ab2 <imm12+0xfffe0fe2>
    54cc:	deadbeef          	jal	t4,fffe0ab6 <imm12+0xfffe0fe6>
    54d0:	deadbeef          	jal	t4,fffe0aba <imm12+0xfffe0fea>
    54d4:	deadbeef          	jal	t4,fffe0abe <imm12+0xfffe0fee>
    54d8:	deadbeef          	jal	t4,fffe0ac2 <imm12+0xfffe0ff2>
    54dc:	deadbeef          	jal	t4,fffe0ac6 <imm12+0xfffe0ff6>
    54e0:	deadbeef          	jal	t4,fffe0aca <imm12+0xfffe0ffa>
    54e4:	deadbeef          	jal	t4,fffe0ace <imm12+0xfffe0ffe>
    54e8:	deadbeef          	jal	t4,fffe0ad2 <imm12+0xfffe1002>
    54ec:	deadbeef          	jal	t4,fffe0ad6 <imm12+0xfffe1006>
    54f0:	deadbeef          	jal	t4,fffe0ada <imm12+0xfffe100a>
    54f4:	deadbeef          	jal	t4,fffe0ade <imm12+0xfffe100e>
    54f8:	deadbeef          	jal	t4,fffe0ae2 <imm12+0xfffe1012>
    54fc:	deadbeef          	jal	t4,fffe0ae6 <imm12+0xfffe1016>
    5500:	deadbeef          	jal	t4,fffe0aea <imm12+0xfffe101a>
    5504:	deadbeef          	jal	t4,fffe0aee <imm12+0xfffe101e>
    5508:	deadbeef          	jal	t4,fffe0af2 <imm12+0xfffe1022>
    550c:	deadbeef          	jal	t4,fffe0af6 <imm12+0xfffe1026>
    5510:	deadbeef          	jal	t4,fffe0afa <imm12+0xfffe102a>
    5514:	deadbeef          	jal	t4,fffe0afe <imm12+0xfffe102e>
    5518:	deadbeef          	jal	t4,fffe0b02 <imm12+0xfffe1032>
    551c:	deadbeef          	jal	t4,fffe0b06 <imm12+0xfffe1036>
    5520:	deadbeef          	jal	t4,fffe0b0a <imm12+0xfffe103a>
    5524:	deadbeef          	jal	t4,fffe0b0e <imm12+0xfffe103e>
    5528:	deadbeef          	jal	t4,fffe0b12 <imm12+0xfffe1042>
    552c:	deadbeef          	jal	t4,fffe0b16 <imm12+0xfffe1046>
    5530:	deadbeef          	jal	t4,fffe0b1a <imm12+0xfffe104a>
    5534:	deadbeef          	jal	t4,fffe0b1e <imm12+0xfffe104e>
    5538:	deadbeef          	jal	t4,fffe0b22 <imm12+0xfffe1052>
    553c:	deadbeef          	jal	t4,fffe0b26 <imm12+0xfffe1056>
    5540:	deadbeef          	jal	t4,fffe0b2a <imm12+0xfffe105a>
    5544:	deadbeef          	jal	t4,fffe0b2e <imm12+0xfffe105e>
    5548:	deadbeef          	jal	t4,fffe0b32 <imm12+0xfffe1062>
    554c:	deadbeef          	jal	t4,fffe0b36 <imm12+0xfffe1066>
    5550:	deadbeef          	jal	t4,fffe0b3a <imm12+0xfffe106a>
    5554:	deadbeef          	jal	t4,fffe0b3e <imm12+0xfffe106e>
    5558:	deadbeef          	jal	t4,fffe0b42 <imm12+0xfffe1072>
    555c:	deadbeef          	jal	t4,fffe0b46 <imm12+0xfffe1076>
    5560:	deadbeef          	jal	t4,fffe0b4a <imm12+0xfffe107a>
    5564:	deadbeef          	jal	t4,fffe0b4e <imm12+0xfffe107e>
    5568:	deadbeef          	jal	t4,fffe0b52 <imm12+0xfffe1082>
    556c:	deadbeef          	jal	t4,fffe0b56 <imm12+0xfffe1086>
    5570:	deadbeef          	jal	t4,fffe0b5a <imm12+0xfffe108a>
    5574:	deadbeef          	jal	t4,fffe0b5e <imm12+0xfffe108e>
    5578:	deadbeef          	jal	t4,fffe0b62 <imm12+0xfffe1092>
    557c:	deadbeef          	jal	t4,fffe0b66 <imm12+0xfffe1096>
    5580:	deadbeef          	jal	t4,fffe0b6a <imm12+0xfffe109a>
    5584:	deadbeef          	jal	t4,fffe0b6e <imm12+0xfffe109e>
    5588:	deadbeef          	jal	t4,fffe0b72 <imm12+0xfffe10a2>
    558c:	deadbeef          	jal	t4,fffe0b76 <imm12+0xfffe10a6>
    5590:	deadbeef          	jal	t4,fffe0b7a <imm12+0xfffe10aa>
    5594:	deadbeef          	jal	t4,fffe0b7e <imm12+0xfffe10ae>
    5598:	deadbeef          	jal	t4,fffe0b82 <imm12+0xfffe10b2>
    559c:	deadbeef          	jal	t4,fffe0b86 <imm12+0xfffe10b6>
    55a0:	deadbeef          	jal	t4,fffe0b8a <imm12+0xfffe10ba>
    55a4:	deadbeef          	jal	t4,fffe0b8e <imm12+0xfffe10be>
    55a8:	deadbeef          	jal	t4,fffe0b92 <imm12+0xfffe10c2>
    55ac:	deadbeef          	jal	t4,fffe0b96 <imm12+0xfffe10c6>
    55b0:	deadbeef          	jal	t4,fffe0b9a <imm12+0xfffe10ca>
    55b4:	deadbeef          	jal	t4,fffe0b9e <imm12+0xfffe10ce>
    55b8:	deadbeef          	jal	t4,fffe0ba2 <imm12+0xfffe10d2>
    55bc:	deadbeef          	jal	t4,fffe0ba6 <imm12+0xfffe10d6>
    55c0:	deadbeef          	jal	t4,fffe0baa <imm12+0xfffe10da>
    55c4:	deadbeef          	jal	t4,fffe0bae <imm12+0xfffe10de>
    55c8:	deadbeef          	jal	t4,fffe0bb2 <imm12+0xfffe10e2>
    55cc:	deadbeef          	jal	t4,fffe0bb6 <imm12+0xfffe10e6>
    55d0:	deadbeef          	jal	t4,fffe0bba <imm12+0xfffe10ea>
    55d4:	deadbeef          	jal	t4,fffe0bbe <imm12+0xfffe10ee>
    55d8:	deadbeef          	jal	t4,fffe0bc2 <imm12+0xfffe10f2>
    55dc:	deadbeef          	jal	t4,fffe0bc6 <imm12+0xfffe10f6>
    55e0:	deadbeef          	jal	t4,fffe0bca <imm12+0xfffe10fa>
    55e4:	deadbeef          	jal	t4,fffe0bce <imm12+0xfffe10fe>
    55e8:	deadbeef          	jal	t4,fffe0bd2 <imm12+0xfffe1102>
    55ec:	deadbeef          	jal	t4,fffe0bd6 <imm12+0xfffe1106>
    55f0:	deadbeef          	jal	t4,fffe0bda <imm12+0xfffe110a>
    55f4:	deadbeef          	jal	t4,fffe0bde <imm12+0xfffe110e>
    55f8:	deadbeef          	jal	t4,fffe0be2 <imm12+0xfffe1112>
    55fc:	deadbeef          	jal	t4,fffe0be6 <imm12+0xfffe1116>
    5600:	deadbeef          	jal	t4,fffe0bea <imm12+0xfffe111a>
    5604:	deadbeef          	jal	t4,fffe0bee <imm12+0xfffe111e>
    5608:	deadbeef          	jal	t4,fffe0bf2 <imm12+0xfffe1122>
    560c:	deadbeef          	jal	t4,fffe0bf6 <imm12+0xfffe1126>
    5610:	deadbeef          	jal	t4,fffe0bfa <imm12+0xfffe112a>
    5614:	deadbeef          	jal	t4,fffe0bfe <imm12+0xfffe112e>
    5618:	deadbeef          	jal	t4,fffe0c02 <imm12+0xfffe1132>
    561c:	deadbeef          	jal	t4,fffe0c06 <imm12+0xfffe1136>
    5620:	deadbeef          	jal	t4,fffe0c0a <imm12+0xfffe113a>
    5624:	deadbeef          	jal	t4,fffe0c0e <imm12+0xfffe113e>
    5628:	deadbeef          	jal	t4,fffe0c12 <imm12+0xfffe1142>
    562c:	deadbeef          	jal	t4,fffe0c16 <imm12+0xfffe1146>
    5630:	deadbeef          	jal	t4,fffe0c1a <imm12+0xfffe114a>
    5634:	deadbeef          	jal	t4,fffe0c1e <imm12+0xfffe114e>
    5638:	deadbeef          	jal	t4,fffe0c22 <imm12+0xfffe1152>
    563c:	deadbeef          	jal	t4,fffe0c26 <imm12+0xfffe1156>
    5640:	deadbeef          	jal	t4,fffe0c2a <imm12+0xfffe115a>
    5644:	deadbeef          	jal	t4,fffe0c2e <imm12+0xfffe115e>
    5648:	deadbeef          	jal	t4,fffe0c32 <imm12+0xfffe1162>
    564c:	deadbeef          	jal	t4,fffe0c36 <imm12+0xfffe1166>
    5650:	deadbeef          	jal	t4,fffe0c3a <imm12+0xfffe116a>
    5654:	deadbeef          	jal	t4,fffe0c3e <imm12+0xfffe116e>
    5658:	deadbeef          	jal	t4,fffe0c42 <imm12+0xfffe1172>
    565c:	deadbeef          	jal	t4,fffe0c46 <imm12+0xfffe1176>
    5660:	deadbeef          	jal	t4,fffe0c4a <imm12+0xfffe117a>
    5664:	deadbeef          	jal	t4,fffe0c4e <imm12+0xfffe117e>
    5668:	deadbeef          	jal	t4,fffe0c52 <imm12+0xfffe1182>
    566c:	deadbeef          	jal	t4,fffe0c56 <imm12+0xfffe1186>
    5670:	deadbeef          	jal	t4,fffe0c5a <imm12+0xfffe118a>
    5674:	deadbeef          	jal	t4,fffe0c5e <imm12+0xfffe118e>
    5678:	deadbeef          	jal	t4,fffe0c62 <imm12+0xfffe1192>
    567c:	deadbeef          	jal	t4,fffe0c66 <imm12+0xfffe1196>
    5680:	deadbeef          	jal	t4,fffe0c6a <imm12+0xfffe119a>
    5684:	deadbeef          	jal	t4,fffe0c6e <imm12+0xfffe119e>
    5688:	deadbeef          	jal	t4,fffe0c72 <imm12+0xfffe11a2>
    568c:	deadbeef          	jal	t4,fffe0c76 <imm12+0xfffe11a6>
    5690:	deadbeef          	jal	t4,fffe0c7a <imm12+0xfffe11aa>
    5694:	deadbeef          	jal	t4,fffe0c7e <imm12+0xfffe11ae>
    5698:	deadbeef          	jal	t4,fffe0c82 <imm12+0xfffe11b2>
    569c:	deadbeef          	jal	t4,fffe0c86 <imm12+0xfffe11b6>
    56a0:	deadbeef          	jal	t4,fffe0c8a <imm12+0xfffe11ba>
    56a4:	deadbeef          	jal	t4,fffe0c8e <imm12+0xfffe11be>
    56a8:	deadbeef          	jal	t4,fffe0c92 <imm12+0xfffe11c2>
    56ac:	deadbeef          	jal	t4,fffe0c96 <imm12+0xfffe11c6>
    56b0:	deadbeef          	jal	t4,fffe0c9a <imm12+0xfffe11ca>
    56b4:	deadbeef          	jal	t4,fffe0c9e <imm12+0xfffe11ce>
    56b8:	deadbeef          	jal	t4,fffe0ca2 <imm12+0xfffe11d2>
    56bc:	deadbeef          	jal	t4,fffe0ca6 <imm12+0xfffe11d6>
    56c0:	deadbeef          	jal	t4,fffe0caa <imm12+0xfffe11da>
    56c4:	deadbeef          	jal	t4,fffe0cae <imm12+0xfffe11de>
    56c8:	deadbeef          	jal	t4,fffe0cb2 <imm12+0xfffe11e2>
    56cc:	deadbeef          	jal	t4,fffe0cb6 <imm12+0xfffe11e6>
    56d0:	deadbeef          	jal	t4,fffe0cba <imm12+0xfffe11ea>
    56d4:	deadbeef          	jal	t4,fffe0cbe <imm12+0xfffe11ee>
    56d8:	deadbeef          	jal	t4,fffe0cc2 <imm12+0xfffe11f2>
    56dc:	deadbeef          	jal	t4,fffe0cc6 <imm12+0xfffe11f6>
    56e0:	deadbeef          	jal	t4,fffe0cca <imm12+0xfffe11fa>
    56e4:	deadbeef          	jal	t4,fffe0cce <imm12+0xfffe11fe>
    56e8:	deadbeef          	jal	t4,fffe0cd2 <imm12+0xfffe1202>
    56ec:	deadbeef          	jal	t4,fffe0cd6 <imm12+0xfffe1206>
    56f0:	deadbeef          	jal	t4,fffe0cda <imm12+0xfffe120a>
    56f4:	deadbeef          	jal	t4,fffe0cde <imm12+0xfffe120e>
    56f8:	deadbeef          	jal	t4,fffe0ce2 <imm12+0xfffe1212>
    56fc:	deadbeef          	jal	t4,fffe0ce6 <imm12+0xfffe1216>
    5700:	deadbeef          	jal	t4,fffe0cea <imm12+0xfffe121a>
    5704:	deadbeef          	jal	t4,fffe0cee <imm12+0xfffe121e>
    5708:	deadbeef          	jal	t4,fffe0cf2 <imm12+0xfffe1222>
    570c:	deadbeef          	jal	t4,fffe0cf6 <imm12+0xfffe1226>
    5710:	deadbeef          	jal	t4,fffe0cfa <imm12+0xfffe122a>
    5714:	deadbeef          	jal	t4,fffe0cfe <imm12+0xfffe122e>
    5718:	deadbeef          	jal	t4,fffe0d02 <imm12+0xfffe1232>
    571c:	deadbeef          	jal	t4,fffe0d06 <imm12+0xfffe1236>
    5720:	deadbeef          	jal	t4,fffe0d0a <imm12+0xfffe123a>
    5724:	deadbeef          	jal	t4,fffe0d0e <imm12+0xfffe123e>
    5728:	deadbeef          	jal	t4,fffe0d12 <imm12+0xfffe1242>
    572c:	deadbeef          	jal	t4,fffe0d16 <imm12+0xfffe1246>
    5730:	deadbeef          	jal	t4,fffe0d1a <imm12+0xfffe124a>
    5734:	deadbeef          	jal	t4,fffe0d1e <imm12+0xfffe124e>
    5738:	deadbeef          	jal	t4,fffe0d22 <imm12+0xfffe1252>
    573c:	deadbeef          	jal	t4,fffe0d26 <imm12+0xfffe1256>
    5740:	deadbeef          	jal	t4,fffe0d2a <imm12+0xfffe125a>
    5744:	deadbeef          	jal	t4,fffe0d2e <imm12+0xfffe125e>
    5748:	deadbeef          	jal	t4,fffe0d32 <imm12+0xfffe1262>
    574c:	deadbeef          	jal	t4,fffe0d36 <imm12+0xfffe1266>
    5750:	deadbeef          	jal	t4,fffe0d3a <imm12+0xfffe126a>
    5754:	deadbeef          	jal	t4,fffe0d3e <imm12+0xfffe126e>
    5758:	deadbeef          	jal	t4,fffe0d42 <imm12+0xfffe1272>
    575c:	deadbeef          	jal	t4,fffe0d46 <imm12+0xfffe1276>
    5760:	deadbeef          	jal	t4,fffe0d4a <imm12+0xfffe127a>
    5764:	deadbeef          	jal	t4,fffe0d4e <imm12+0xfffe127e>
    5768:	deadbeef          	jal	t4,fffe0d52 <imm12+0xfffe1282>
    576c:	deadbeef          	jal	t4,fffe0d56 <imm12+0xfffe1286>
    5770:	deadbeef          	jal	t4,fffe0d5a <imm12+0xfffe128a>
    5774:	deadbeef          	jal	t4,fffe0d5e <imm12+0xfffe128e>
    5778:	deadbeef          	jal	t4,fffe0d62 <imm12+0xfffe1292>
    577c:	deadbeef          	jal	t4,fffe0d66 <imm12+0xfffe1296>
    5780:	deadbeef          	jal	t4,fffe0d6a <imm12+0xfffe129a>
    5784:	deadbeef          	jal	t4,fffe0d6e <imm12+0xfffe129e>
    5788:	deadbeef          	jal	t4,fffe0d72 <imm12+0xfffe12a2>
    578c:	deadbeef          	jal	t4,fffe0d76 <imm12+0xfffe12a6>
    5790:	deadbeef          	jal	t4,fffe0d7a <imm12+0xfffe12aa>
    5794:	deadbeef          	jal	t4,fffe0d7e <imm12+0xfffe12ae>
    5798:	deadbeef          	jal	t4,fffe0d82 <imm12+0xfffe12b2>
    579c:	deadbeef          	jal	t4,fffe0d86 <imm12+0xfffe12b6>
    57a0:	deadbeef          	jal	t4,fffe0d8a <imm12+0xfffe12ba>
    57a4:	deadbeef          	jal	t4,fffe0d8e <imm12+0xfffe12be>
    57a8:	deadbeef          	jal	t4,fffe0d92 <imm12+0xfffe12c2>
    57ac:	deadbeef          	jal	t4,fffe0d96 <imm12+0xfffe12c6>
    57b0:	deadbeef          	jal	t4,fffe0d9a <imm12+0xfffe12ca>
    57b4:	deadbeef          	jal	t4,fffe0d9e <imm12+0xfffe12ce>
    57b8:	deadbeef          	jal	t4,fffe0da2 <imm12+0xfffe12d2>
    57bc:	deadbeef          	jal	t4,fffe0da6 <imm12+0xfffe12d6>
    57c0:	deadbeef          	jal	t4,fffe0daa <imm12+0xfffe12da>
    57c4:	deadbeef          	jal	t4,fffe0dae <imm12+0xfffe12de>
    57c8:	deadbeef          	jal	t4,fffe0db2 <imm12+0xfffe12e2>
    57cc:	deadbeef          	jal	t4,fffe0db6 <imm12+0xfffe12e6>
    57d0:	deadbeef          	jal	t4,fffe0dba <imm12+0xfffe12ea>
    57d4:	deadbeef          	jal	t4,fffe0dbe <imm12+0xfffe12ee>
    57d8:	deadbeef          	jal	t4,fffe0dc2 <imm12+0xfffe12f2>
    57dc:	deadbeef          	jal	t4,fffe0dc6 <imm12+0xfffe12f6>
    57e0:	deadbeef          	jal	t4,fffe0dca <imm12+0xfffe12fa>
    57e4:	deadbeef          	jal	t4,fffe0dce <imm12+0xfffe12fe>
    57e8:	deadbeef          	jal	t4,fffe0dd2 <imm12+0xfffe1302>
    57ec:	deadbeef          	jal	t4,fffe0dd6 <imm12+0xfffe1306>
    57f0:	deadbeef          	jal	t4,fffe0dda <imm12+0xfffe130a>
    57f4:	deadbeef          	jal	t4,fffe0dde <imm12+0xfffe130e>
    57f8:	deadbeef          	jal	t4,fffe0de2 <imm12+0xfffe1312>
    57fc:	deadbeef          	jal	t4,fffe0de6 <imm12+0xfffe1316>
    5800:	deadbeef          	jal	t4,fffe0dea <imm12+0xfffe131a>
    5804:	deadbeef          	jal	t4,fffe0dee <imm12+0xfffe131e>
    5808:	deadbeef          	jal	t4,fffe0df2 <imm12+0xfffe1322>
    580c:	deadbeef          	jal	t4,fffe0df6 <imm12+0xfffe1326>
    5810:	deadbeef          	jal	t4,fffe0dfa <imm12+0xfffe132a>
    5814:	deadbeef          	jal	t4,fffe0dfe <imm12+0xfffe132e>
    5818:	deadbeef          	jal	t4,fffe0e02 <imm12+0xfffe1332>
    581c:	deadbeef          	jal	t4,fffe0e06 <imm12+0xfffe1336>
    5820:	deadbeef          	jal	t4,fffe0e0a <imm12+0xfffe133a>
    5824:	deadbeef          	jal	t4,fffe0e0e <imm12+0xfffe133e>
    5828:	deadbeef          	jal	t4,fffe0e12 <imm12+0xfffe1342>
    582c:	deadbeef          	jal	t4,fffe0e16 <imm12+0xfffe1346>
    5830:	deadbeef          	jal	t4,fffe0e1a <imm12+0xfffe134a>
    5834:	deadbeef          	jal	t4,fffe0e1e <imm12+0xfffe134e>
    5838:	deadbeef          	jal	t4,fffe0e22 <imm12+0xfffe1352>
    583c:	deadbeef          	jal	t4,fffe0e26 <imm12+0xfffe1356>
    5840:	deadbeef          	jal	t4,fffe0e2a <imm12+0xfffe135a>
    5844:	deadbeef          	jal	t4,fffe0e2e <imm12+0xfffe135e>
    5848:	deadbeef          	jal	t4,fffe0e32 <imm12+0xfffe1362>
    584c:	deadbeef          	jal	t4,fffe0e36 <imm12+0xfffe1366>
    5850:	deadbeef          	jal	t4,fffe0e3a <imm12+0xfffe136a>
    5854:	deadbeef          	jal	t4,fffe0e3e <imm12+0xfffe136e>
    5858:	deadbeef          	jal	t4,fffe0e42 <imm12+0xfffe1372>
    585c:	deadbeef          	jal	t4,fffe0e46 <imm12+0xfffe1376>
    5860:	deadbeef          	jal	t4,fffe0e4a <imm12+0xfffe137a>
    5864:	deadbeef          	jal	t4,fffe0e4e <imm12+0xfffe137e>
    5868:	deadbeef          	jal	t4,fffe0e52 <imm12+0xfffe1382>
    586c:	deadbeef          	jal	t4,fffe0e56 <imm12+0xfffe1386>
    5870:	deadbeef          	jal	t4,fffe0e5a <imm12+0xfffe138a>
    5874:	deadbeef          	jal	t4,fffe0e5e <imm12+0xfffe138e>
    5878:	deadbeef          	jal	t4,fffe0e62 <imm12+0xfffe1392>
    587c:	deadbeef          	jal	t4,fffe0e66 <imm12+0xfffe1396>
    5880:	deadbeef          	jal	t4,fffe0e6a <imm12+0xfffe139a>
    5884:	deadbeef          	jal	t4,fffe0e6e <imm12+0xfffe139e>
    5888:	deadbeef          	jal	t4,fffe0e72 <imm12+0xfffe13a2>
    588c:	deadbeef          	jal	t4,fffe0e76 <imm12+0xfffe13a6>
    5890:	deadbeef          	jal	t4,fffe0e7a <imm12+0xfffe13aa>
    5894:	deadbeef          	jal	t4,fffe0e7e <imm12+0xfffe13ae>
    5898:	deadbeef          	jal	t4,fffe0e82 <imm12+0xfffe13b2>
    589c:	deadbeef          	jal	t4,fffe0e86 <imm12+0xfffe13b6>
    58a0:	deadbeef          	jal	t4,fffe0e8a <imm12+0xfffe13ba>
    58a4:	deadbeef          	jal	t4,fffe0e8e <imm12+0xfffe13be>
    58a8:	deadbeef          	jal	t4,fffe0e92 <imm12+0xfffe13c2>
    58ac:	deadbeef          	jal	t4,fffe0e96 <imm12+0xfffe13c6>
    58b0:	deadbeef          	jal	t4,fffe0e9a <imm12+0xfffe13ca>
    58b4:	deadbeef          	jal	t4,fffe0e9e <imm12+0xfffe13ce>
    58b8:	deadbeef          	jal	t4,fffe0ea2 <imm12+0xfffe13d2>
    58bc:	deadbeef          	jal	t4,fffe0ea6 <imm12+0xfffe13d6>
    58c0:	deadbeef          	jal	t4,fffe0eaa <imm12+0xfffe13da>
    58c4:	deadbeef          	jal	t4,fffe0eae <imm12+0xfffe13de>
    58c8:	deadbeef          	jal	t4,fffe0eb2 <imm12+0xfffe13e2>
    58cc:	deadbeef          	jal	t4,fffe0eb6 <imm12+0xfffe13e6>
    58d0:	deadbeef          	jal	t4,fffe0eba <imm12+0xfffe13ea>
    58d4:	deadbeef          	jal	t4,fffe0ebe <imm12+0xfffe13ee>
    58d8:	deadbeef          	jal	t4,fffe0ec2 <imm12+0xfffe13f2>
    58dc:	deadbeef          	jal	t4,fffe0ec6 <imm12+0xfffe13f6>
    58e0:	deadbeef          	jal	t4,fffe0eca <imm12+0xfffe13fa>
    58e4:	deadbeef          	jal	t4,fffe0ece <imm12+0xfffe13fe>
    58e8:	deadbeef          	jal	t4,fffe0ed2 <imm12+0xfffe1402>
    58ec:	deadbeef          	jal	t4,fffe0ed6 <imm12+0xfffe1406>
    58f0:	deadbeef          	jal	t4,fffe0eda <imm12+0xfffe140a>
    58f4:	deadbeef          	jal	t4,fffe0ede <imm12+0xfffe140e>
    58f8:	deadbeef          	jal	t4,fffe0ee2 <imm12+0xfffe1412>
    58fc:	deadbeef          	jal	t4,fffe0ee6 <imm12+0xfffe1416>
    5900:	deadbeef          	jal	t4,fffe0eea <imm12+0xfffe141a>
    5904:	deadbeef          	jal	t4,fffe0eee <imm12+0xfffe141e>
    5908:	deadbeef          	jal	t4,fffe0ef2 <imm12+0xfffe1422>
    590c:	deadbeef          	jal	t4,fffe0ef6 <imm12+0xfffe1426>
    5910:	deadbeef          	jal	t4,fffe0efa <imm12+0xfffe142a>
    5914:	deadbeef          	jal	t4,fffe0efe <imm12+0xfffe142e>
    5918:	deadbeef          	jal	t4,fffe0f02 <imm12+0xfffe1432>
    591c:	deadbeef          	jal	t4,fffe0f06 <imm12+0xfffe1436>
    5920:	deadbeef          	jal	t4,fffe0f0a <imm12+0xfffe143a>
    5924:	deadbeef          	jal	t4,fffe0f0e <imm12+0xfffe143e>
    5928:	deadbeef          	jal	t4,fffe0f12 <imm12+0xfffe1442>
    592c:	deadbeef          	jal	t4,fffe0f16 <imm12+0xfffe1446>
    5930:	deadbeef          	jal	t4,fffe0f1a <imm12+0xfffe144a>
    5934:	deadbeef          	jal	t4,fffe0f1e <imm12+0xfffe144e>
    5938:	deadbeef          	jal	t4,fffe0f22 <imm12+0xfffe1452>
    593c:	deadbeef          	jal	t4,fffe0f26 <imm12+0xfffe1456>
    5940:	deadbeef          	jal	t4,fffe0f2a <imm12+0xfffe145a>
    5944:	deadbeef          	jal	t4,fffe0f2e <imm12+0xfffe145e>
    5948:	deadbeef          	jal	t4,fffe0f32 <imm12+0xfffe1462>
    594c:	deadbeef          	jal	t4,fffe0f36 <imm12+0xfffe1466>
    5950:	deadbeef          	jal	t4,fffe0f3a <imm12+0xfffe146a>
    5954:	deadbeef          	jal	t4,fffe0f3e <imm12+0xfffe146e>
    5958:	deadbeef          	jal	t4,fffe0f42 <imm12+0xfffe1472>
    595c:	deadbeef          	jal	t4,fffe0f46 <imm12+0xfffe1476>
    5960:	deadbeef          	jal	t4,fffe0f4a <imm12+0xfffe147a>
    5964:	deadbeef          	jal	t4,fffe0f4e <imm12+0xfffe147e>
    5968:	deadbeef          	jal	t4,fffe0f52 <imm12+0xfffe1482>
    596c:	deadbeef          	jal	t4,fffe0f56 <imm12+0xfffe1486>
    5970:	deadbeef          	jal	t4,fffe0f5a <imm12+0xfffe148a>
    5974:	deadbeef          	jal	t4,fffe0f5e <imm12+0xfffe148e>
    5978:	deadbeef          	jal	t4,fffe0f62 <imm12+0xfffe1492>
    597c:	deadbeef          	jal	t4,fffe0f66 <imm12+0xfffe1496>
    5980:	deadbeef          	jal	t4,fffe0f6a <imm12+0xfffe149a>
    5984:	deadbeef          	jal	t4,fffe0f6e <imm12+0xfffe149e>
    5988:	deadbeef          	jal	t4,fffe0f72 <imm12+0xfffe14a2>
    598c:	deadbeef          	jal	t4,fffe0f76 <imm12+0xfffe14a6>
    5990:	deadbeef          	jal	t4,fffe0f7a <imm12+0xfffe14aa>
    5994:	deadbeef          	jal	t4,fffe0f7e <imm12+0xfffe14ae>

00005998 <signature_x1_1>:
    5998:	deadbeef          	jal	t4,fffe0f82 <imm12+0xfffe14b2>
    599c:	deadbeef          	jal	t4,fffe0f86 <imm12+0xfffe14b6>
    59a0:	deadbeef          	jal	t4,fffe0f8a <imm12+0xfffe14ba>
    59a4:	deadbeef          	jal	t4,fffe0f8e <imm12+0xfffe14be>
    59a8:	deadbeef          	jal	t4,fffe0f92 <imm12+0xfffe14c2>
    59ac:	deadbeef          	jal	t4,fffe0f96 <imm12+0xfffe14c6>
    59b0:	deadbeef          	jal	t4,fffe0f9a <imm12+0xfffe14ca>
    59b4:	deadbeef          	jal	t4,fffe0f9e <imm12+0xfffe14ce>
    59b8:	deadbeef          	jal	t4,fffe0fa2 <imm12+0xfffe14d2>
    59bc:	deadbeef          	jal	t4,fffe0fa6 <imm12+0xfffe14d6>
    59c0:	deadbeef          	jal	t4,fffe0faa <imm12+0xfffe14da>
    59c4:	deadbeef          	jal	t4,fffe0fae <imm12+0xfffe14de>
    59c8:	deadbeef          	jal	t4,fffe0fb2 <imm12+0xfffe14e2>
    59cc:	deadbeef          	jal	t4,fffe0fb6 <imm12+0xfffe14e6>
    59d0:	deadbeef          	jal	t4,fffe0fba <imm12+0xfffe14ea>
    59d4:	deadbeef          	jal	t4,fffe0fbe <imm12+0xfffe14ee>
    59d8:	deadbeef          	jal	t4,fffe0fc2 <imm12+0xfffe14f2>
    59dc:	deadbeef          	jal	t4,fffe0fc6 <imm12+0xfffe14f6>
    59e0:	deadbeef          	jal	t4,fffe0fca <imm12+0xfffe14fa>
    59e4:	deadbeef          	jal	t4,fffe0fce <imm12+0xfffe14fe>
    59e8:	deadbeef          	jal	t4,fffe0fd2 <imm12+0xfffe1502>
    59ec:	deadbeef          	jal	t4,fffe0fd6 <imm12+0xfffe1506>
    59f0:	deadbeef          	jal	t4,fffe0fda <imm12+0xfffe150a>
    59f4:	deadbeef          	jal	t4,fffe0fde <imm12+0xfffe150e>
    59f8:	deadbeef          	jal	t4,fffe0fe2 <imm12+0xfffe1512>
    59fc:	deadbeef          	jal	t4,fffe0fe6 <imm12+0xfffe1516>
    5a00:	deadbeef          	jal	t4,fffe0fea <imm12+0xfffe151a>
    5a04:	deadbeef          	jal	t4,fffe0fee <imm12+0xfffe151e>
    5a08:	deadbeef          	jal	t4,fffe0ff2 <imm12+0xfffe1522>
    5a0c:	deadbeef          	jal	t4,fffe0ff6 <imm12+0xfffe1526>
    5a10:	deadbeef          	jal	t4,fffe0ffa <imm12+0xfffe152a>
    5a14:	deadbeef          	jal	t4,fffe0ffe <imm12+0xfffe152e>
    5a18:	deadbeef          	jal	t4,fffe1002 <imm12+0xfffe1532>
    5a1c:	deadbeef          	jal	t4,fffe1006 <imm12+0xfffe1536>
    5a20:	deadbeef          	jal	t4,fffe100a <imm12+0xfffe153a>
    5a24:	deadbeef          	jal	t4,fffe100e <imm12+0xfffe153e>
    5a28:	deadbeef          	jal	t4,fffe1012 <imm12+0xfffe1542>
    5a2c:	deadbeef          	jal	t4,fffe1016 <imm12+0xfffe1546>
    5a30:	deadbeef          	jal	t4,fffe101a <imm12+0xfffe154a>
    5a34:	deadbeef          	jal	t4,fffe101e <imm12+0xfffe154e>
    5a38:	deadbeef          	jal	t4,fffe1022 <imm12+0xfffe1552>
    5a3c:	deadbeef          	jal	t4,fffe1026 <imm12+0xfffe1556>
    5a40:	deadbeef          	jal	t4,fffe102a <imm12+0xfffe155a>

00005a44 <sig_end_canary>:
    5a44:	a309                	.insn	2, 0xa309
    5a46:	6f5c                	.insn	2, 0x6f5c

00005a48 <rvtest_sig_end>:
	...
