
main.elf:     file format elf32-littleriscv


Disassembly of section .text:

00000000 <_start>:
   0:	400002b7          	lui	t0,0x40000
   4:	ff028293          	addi	t0,t0,-16 # 3ffffff0 <_end+0x3ffffe80>
   8:	00028113          	mv	sp,t0
   c:	00c000ef          	jal	18 <main>
  10:	130000ef          	jal	140 <finish_sim>
  14:	0000006f          	j	14 <_start+0x14>

00000018 <main>:
  18:	fd010113          	addi	sp,sp,-48
  1c:	02112623          	sw	ra,44(sp)
  20:	02812423          	sw	s0,40(sp)
  24:	03010413          	addi	s0,sp,48
  28:	202c77b7          	lui	a5,0x202c7
  2c:	94878793          	addi	a5,a5,-1720 # 202c6948 <_end+0x202c67d8>
  30:	fcf42c23          	sw	a5,-40(s0)
  34:	206d27b7          	lui	a5,0x206d2
  38:	74978793          	addi	a5,a5,1865 # 206d2749 <_end+0x206d25d9>
  3c:	fcf42e23          	sw	a5,-36(s0)
  40:	726f67b7          	lui	a5,0x726f6
  44:	74978793          	addi	a5,a5,1865 # 726f6749 <_end+0x726f65d9>
  48:	fef42023          	sw	a5,-32(s0)
  4c:	fe040223          	sb	zero,-28(s0)
  50:	f00007b7          	lui	a5,0xf0000
  54:	fef42423          	sw	a5,-24(s0)
  58:	fe042623          	sw	zero,-20(s0)
  5c:	0640006f          	j	c0 <main+0xa8>
  60:	400007b7          	lui	a5,0x40000
  64:	0047c783          	lbu	a5,4(a5) # 40000004 <_end+0x3ffffe94>
  68:	0017f793          	andi	a5,a5,1
  6c:	0ff7f793          	zext.b	a5,a5
  70:	04079863          	bnez	a5,c0 <main+0xa8>
  74:	400007b7          	lui	a5,0x40000
  78:	fec42703          	lw	a4,-20(s0)
  7c:	ff070713          	addi	a4,a4,-16
  80:	00870733          	add	a4,a4,s0
  84:	fe874703          	lbu	a4,-24(a4)
  88:	00e78023          	sb	a4,0(a5) # 40000000 <_end+0x3ffffe90>
  8c:	fec42783          	lw	a5,-20(s0)
  90:	00178793          	addi	a5,a5,1
  94:	fef42623          	sw	a5,-20(s0)
  98:	400007b7          	lui	a5,0x40000
  9c:	00c7c783          	lbu	a5,12(a5) # 4000000c <_end+0x3ffffe9c>
  a0:	0017f793          	andi	a5,a5,1
  a4:	0ff7f793          	zext.b	a5,a5
  a8:	00078c63          	beqz	a5,c0 <main+0xa8>
  ac:	400007b7          	lui	a5,0x40000
  b0:	0087c783          	lbu	a5,8(a5) # 40000008 <_end+0x3ffffe98>
  b4:	00078713          	mv	a4,a5
  b8:	fe842783          	lw	a5,-24(s0)
  bc:	00e7a023          	sw	a4,0(a5)
  c0:	fec42703          	lw	a4,-20(s0)
  c4:	00b00793          	li	a5,11
  c8:	f8e7dce3          	bge	a5,a4,60 <main+0x48>
  cc:	02c0006f          	j	f8 <main+0xe0>
  d0:	400007b7          	lui	a5,0x40000
  d4:	00c7c783          	lbu	a5,12(a5) # 4000000c <_end+0x3ffffe9c>
  d8:	0017f793          	andi	a5,a5,1
  dc:	0ff7f793          	zext.b	a5,a5
  e0:	00078c63          	beqz	a5,f8 <main+0xe0>
  e4:	400007b7          	lui	a5,0x40000
  e8:	0087c783          	lbu	a5,8(a5) # 40000008 <_end+0x3ffffe98>
  ec:	00078713          	mv	a4,a5
  f0:	fe842783          	lw	a5,-24(s0)
  f4:	00e7a023          	sw	a4,0(a5)
  f8:	400007b7          	lui	a5,0x40000
  fc:	00c7c783          	lbu	a5,12(a5) # 4000000c <_end+0x3ffffe9c>
 100:	0017d793          	srli	a5,a5,0x1
 104:	0017f793          	andi	a5,a5,1
 108:	0ff7f713          	zext.b	a4,a5
 10c:	400007b7          	lui	a5,0x40000
 110:	0047c783          	lbu	a5,4(a5) # 40000004 <_end+0x3ffffe94>
 114:	0017f793          	andi	a5,a5,1
 118:	0ff7f793          	zext.b	a5,a5
 11c:	00f767b3          	or	a5,a4,a5
 120:	0ff7f793          	zext.b	a5,a5
 124:	fa0796e3          	bnez	a5,d0 <main+0xb8>
 128:	018000ef          	jal	140 <finish_sim>
 12c:	00000013          	nop
 130:	02c12083          	lw	ra,44(sp)
 134:	02812403          	lw	s0,40(sp)
 138:	03010113          	addi	sp,sp,48
 13c:	00008067          	ret

00000140 <finish_sim>:
 140:	ff010113          	addi	sp,sp,-16
 144:	00112623          	sw	ra,12(sp)
 148:	00812423          	sw	s0,8(sp)
 14c:	01010413          	addi	s0,sp,16
 150:	f00002b7          	lui	t0,0xf0000
 154:	00428293          	addi	t0,t0,4 # f0000004 <_end+0xeffffe94>
 158:	0052a023          	sw	t0,0(t0)
 15c:	00000013          	nop
 160:	00c12083          	lw	ra,12(sp)
 164:	00812403          	lw	s0,8(sp)
 168:	01010113          	addi	sp,sp,16
 16c:	00008067          	ret
